

Microchip MPLAB XC8 Assembler V2.05 build -831301201 
                                                                                               Tue May 28 22:10:30 2019

Microchip MPLAB XC8 C Compiler v2.05 (Free license) build 20181220022703 Og1 
     1                           	processor	18F45K50
     2                           	fnconf	rparam,??,?,0
     3                           	opt	pw 120
     4                           	opt	flic
     5                           	psect	idataCOMRAM,global,class=CODE,delta=1,noexec
     6                           	psect	nvCOMRAM,global,class=COMRAM,space=1,delta=1,noexec
     7                           	psect	smallconst,global,reloc=2,class=SMALLCONST,delta=1,noexec
     8                           	psect	cinit,global,reloc=2,class=CODE,delta=1
     9                           	psect	bssCOMRAM,global,class=COMRAM,space=1,delta=1,noexec
    10                           	psect	dataCOMRAM,global,class=COMRAM,space=1,delta=1,noexec
    11                           	psect	bssBANK0,global,class=BANK0,space=1,delta=1,lowdata,noexec
    12                           	psect	bssBIGRAM,global,class=BIGRAM,space=1,delta=1,lowdata,noexec
    13                           	psect	cstackCOMRAM,global,class=COMRAM,space=1,delta=1,noexec
    14                           	psect	text0,global,reloc=2,class=CODE,delta=1
    15                           	psect	text1,global,reloc=2,class=CODE,delta=1
    16                           	psect	text2,global,reloc=2,class=CODE,delta=1,group=1
    17                           	psect	text3,global,reloc=2,class=CODE,delta=1,group=1
    18                           	psect	text4,global,reloc=2,class=CODE,delta=1,group=1
    19                           	psect	text5,global,reloc=2,class=CODE,delta=1
    20                           	psect	intsave_regs,global,class=BIGRAM,space=1,delta=1,noexec
    21                           	psect	rparam,global,class=COMRAM,space=1,delta=1,noexec
    22  0000                     
    23                           ; Version 2.05
    24                           ; Generated 20/12/2018 GMT
    25                           ; 
    26                           ; Copyright © 2018, Microchip Technology Inc. and its subsidiaries ("Microchip")
    27                           ; All rights reserved.
    28                           ; 
    29                           ; This software is developed by Microchip Technology Inc. and its subsidiaries ("Microch
      +                          ip").
    30                           ; 
    31                           ; Redistribution and use in source and binary forms, with or without modification, are
    32                           ; permitted provided that the following conditions are met:
    33                           ; 
    34                           ;     1. Redistributions of source code must retain the above copyright notice, this lis
      +                          t of
    35                           ;        conditions and the following disclaimer.
    36                           ; 
    37                           ;     2. Redistributions in binary form must reproduce the above copyright notice, this 
      +                          list
    38                           ;        of conditions and the following disclaimer in the documentation and/or other
    39                           ;        materials provided with the distribution.
    40                           ; 
    41                           ;     3. Microchip's name may not be used to endorse or promote products derived from th
      +                          is
    42                           ;        software without specific prior written permission.
    43                           ; 
    44                           ; THIS SOFTWARE IS PROVIDED BY MICROCHIP "AS IS" AND ANY EXPRESS OR IMPLIED WARRANTIES,
    45                           ; INCLUDING, BUT NOT LIMITED TO, THE IMPLIED WARRANTIES OF MERCHANTABILITY AND FITNESS F
      +                          OR
    46                           ; PURPOSE ARE DISCLAIMED.  IN NO EVENT SHALL MICROCHIP BE LIABLE FOR ANY DIRECT, INDIREC
      +                          T,
    47                           ; INCIDENTAL, SPECIAL, EXEMPLARY, OR CONSEQUENTIAL DAMAGES (INCLUDING BUT NOT LIMITED TO
    48                           ; PROCUREMENT OF SUBSTITUTE GOODS OR SERVICES; LOSS OF USE, DATA OR PROFITS; OR BUSINESS
    49                           ; INTERRUPTION) HOWSOEVER CAUSED AND ON ANY THEORY OF LIABILITY, WHETHER IN CONTRACT, ST
      +                          RICT
    50                           ; LIABILITY, OR TORT (INCLUDING NEGLIGENCE OR OTHERWISE) ARISING IN ANY WAY OUT OF THE U
      +                          SE OF
    51                           ; THIS SOFTWARE, EVEN IF ADVISED OF THE POSSIBILITY OF SUCH DAMAGE.
    52                           ; 
    53                           ; 
    54                           ; Code-generator required, PIC18F45K50 Definitions
    55                           ; 
    56                           ; SFR Addresses
    57  0000                     
    58                           	psect	idataCOMRAM
    59  0010A4                     __pidataCOMRAM:
    60                           	opt callstack 0
    61                           
    62                           ;initializer for Error@F5051
    63  0010A4  7E                 	db	126
    64  0010A5  30                 	db	48
    65  0010A6  6D                 	db	109
    66  0010A7  79                 	db	121
    67  0010A8  33                 	db	51
    68  0010A9  5B                 	db	91
    69  0010AA  5F                 	db	95
    70  0010AB  70                 	db	112
    71  0010AC  7F                 	db	127
    72  0010AD  73                 	db	115
    73                           
    74                           ;initializer for _Stat
    75  0010AE  01                 	db	1
    76                           
    77                           	psect	nvCOMRAM
    78  00004E                     __pnvCOMRAM:
    79                           	opt callstack 0
    80  00004E                     _volt:
    81                           	opt callstack 0
    82  00004E                     	ds	4
    83  000052                     _adcin:
    84                           	opt callstack 0
    85  000052                     	ds	2
    86  0000                     _ANSELA	set	3931
    87  0000                     _ANSELE	set	3935
    88  0000                     _ANSELD	set	3934
    89  0000                     _ANSELB	set	3932
    90  0000                     _ANSELC	set	3933
    91  0000                     _ADRESL	set	4035
    92  0000                     _ADRESH	set	4036
    93  0000                     _PORTA	set	3968
    94  0000                     _ADCON0bits	set	4034
    95  0000                     _ADCON0	set	4034
    96  0000                     _TRISA	set	3986
    97  0000                     _LATA	set	3977
    98  0000                     _ADCON1	set	4033
    99  0000                     _ADCON2	set	4032
   100  0000                     _TRISE	set	3990
   101  0000                     _LATE	set	3981
   102  0000                     _TRISD	set	3989
   103  0000                     _LATD	set	3980
   104  0000                     _SSP1STATbits	set	4039
   105  0000                     _SSP1BUF	set	4041
   106  0000                     _SSP1CON1bits	set	4038
   107  0000                     _SSP1ADD	set	4040
   108  0000                     _SSP1CON1	set	4038
   109  0000                     _SSP1STAT	set	4039
   110  0000                     _INTCON2bits	set	4081
   111  0000                     _WPUB	set	3973
   112  0000                     _TRISC	set	3988
   113  0000                     _TRISB	set	3987
   114  0000                     _LATC	set	3979
   115  0000                     _LATB	set	3978
   116  0000                     _ACTCON	set	4021
   117  0000                     _OSCTUNE	set	3995
   118  0000                     _OSCCON2	set	4050
   119  0000                     _OSCCON	set	4051
   120  0000                     _LATBbits	set	3978
   121  0000                     _ADIF	set	31990
   122  0000                     _ADIE	set	31982
   123  0000                     _PEIE	set	32662
   124  0000                     _GIE	set	32663
   125                           
   126                           	psect	smallconst
   127  000800                     __psmallconst:
   128                           	opt callstack 0
   129  000800  00                 	db	0
   130  000801                     STR_1:
   131                           
   132                           ; BSR set to: 15
   133  000801  22                 	db	34
   134  000802  2A                 	db	42
   135  000803  2B                 	db	43
   136  000804  2C                 	db	44
   137  000805  3A                 	db	58	;':'
   138  000806  3B                 	db	59	;';'
   139  000807  3C                 	db	60	;'<'
   140  000808  3D                 	db	61	;'='
   141  000809  3E                 	db	62	;'>'
   142  00080A  3F                 	db	63	;'?'
   143  00080B  5B                 	db	91	;'['
   144  00080C  5D                 	db	93	;']'
   145  00080D  7C                 	db	124
   146  00080E  7F                 	db	127
   147  00080F  00                 	db	0
   148  000810                     STR_5:
   149                           
   150                           ; BSR set to: 15
   151  000810  42                 	db	66	;'B'
   152  000811  65                 	db	101	;'e'
   153  000812  65                 	db	101	;'e'
   154  000813  44                 	db	68	;'D'
   155  000814  65                 	db	101	;'e'
   156  000815  76                 	db	118	;'v'
   157  000816  2E                 	db	46
   158  000817  74                 	db	116	;'t'
   159  000818  78                 	db	120	;'x'
   160  000819  74                 	db	116	;'t'
   161  00081A  00                 	db	0
   162  0000                     
   163                           ; #config settings
   164  00081B  00                 	db	0	; dummy byte at the end
   165  0000                     
   166                           	psect	cinit
   167  001018                     __pcinit:
   168                           	opt callstack 0
   169  001018                     start_initialization:
   170                           	opt callstack 0
   171  001018                     __initialization:
   172                           	opt callstack 0
   173                           
   174                           ; Initialize objects allocated to COMRAM (11 bytes)
   175                           ; load TBLPTR registers with __pidataCOMRAM
   176  001018  0EA4               	movlw	low __pidataCOMRAM
   177  00101A  6EF6               	movwf	tblptrl,c
   178  00101C  0E10               	movlw	high __pidataCOMRAM
   179  00101E  6EF7               	movwf	tblptrh,c
   180  001020  0E00               	movlw	low (__pidataCOMRAM shr (0+16))
   181  001022  6EF8               	movwf	tblptru,c
   182  001024  EE00  F043         	lfsr	0,__pdataCOMRAM
   183  001028  EE10 F00B          	lfsr	1,11
   184  00102C                     copy_data0:
   185  00102C  0009               	tblrd		*+
   186  00102E  CFF5 FFEE          	movff	tablat,postinc0
   187  001032  50E5               	movf	postdec1,w,c
   188  001034  50E1               	movf	fsr1l,w,c
   189  001036  E1FA               	bnz	copy_data0
   190                           
   191                           ; Clear objects allocated to BIGRAM (558 bytes)
   192  001038  EE00  F080         	lfsr	0,__pbssBIGRAM
   193  00103C  EE12 F02E          	lfsr	1,558
   194  001040                     clear_0:
   195  001040  6AEE               	clrf	postinc0,c
   196  001042  50E5               	movf	postdec1,w,c
   197  001044  50E1               	movf	fsr1l,w,c
   198  001046  E1FC               	bnz	clear_0
   199  001048  50E2               	movf	fsr1h,w,c
   200  00104A  E1FA               	bnz	clear_0
   201                           
   202                           ; Clear objects allocated to BANK0 (32 bytes)
   203  00104C  EE00  F060         	lfsr	0,__pbssBANK0
   204  001050  0E20               	movlw	32
   205  001052                     clear_1:
   206  001052  6AEE               	clrf	postinc0,c
   207  001054  06E8               	decf	wreg,f,c
   208  001056  E1FD               	bnz	clear_1
   209                           
   210                           ; Clear objects allocated to COMRAM (6 bytes)
   211  001058  6A59               	clrf	(__pbssCOMRAM+5)& (0+255),c
   212  00105A  6A58               	clrf	(__pbssCOMRAM+4)& (0+255),c
   213  00105C  6A57               	clrf	(__pbssCOMRAM+3)& (0+255),c
   214  00105E  6A56               	clrf	(__pbssCOMRAM+2)& (0+255),c
   215  001060  6A55               	clrf	(__pbssCOMRAM+1)& (0+255),c
   216  001062  6A54               	clrf	__pbssCOMRAM& (0+255),c
   217  001064                     end_of_initialization:
   218                           	opt callstack 0
   219  001064                     __end_of__initialization:
   220                           	opt callstack 0
   221  001064  0E00               	movlw	low (__Lmediumconst shr (0+16))
   222  001066  6EF8               	movwf	tblptru,c
   223  001068  0100               	movlb	0
   224  00106A  EF9B  F007         	goto	_main	;jump to C main() function
   225                           
   226                           	psect	bssCOMRAM
   227  000054                     __pbssCOMRAM:
   228                           	opt callstack 0
   229  000054                     _Fsid:
   230                           	opt callstack 0
   231  000054                     	ds	2
   232  000056                     ff@FatFs:
   233                           	opt callstack 0
   234  000056                     	ds	2
   235  000058                     _data:
   236                           	opt callstack 0
   237  000058                     	ds	1
   238  000059                     _CardType:
   239                           	opt callstack 0
   240  000059                     	ds	1
   241                           
   242                           	psect	dataCOMRAM
   243  000043                     __pdataCOMRAM:
   244                           	opt callstack 0
   245  000043                     Error@F5051:
   246                           	opt callstack 0
   247  000043                     	ds	10
   248  00004D                     _Stat:
   249                           	opt callstack 0
   250  00004D                     	ds	1
   251                           
   252                           	psect	bssBANK0
   253  000060                     __pbssBANK0:
   254                           	opt callstack 0
   255  000060                     _Fil:
   256                           	opt callstack 0
   257  000060                     	ds	32
   258                           
   259                           	psect	bssBIGRAM
   260  000080                     __pbssBIGRAM:
   261                           	opt callstack 0
   262  000080                     _FatFs:
   263                           	opt callstack 0
   264  000080                     	ds	558
   265                           
   266                           	psect	cstackCOMRAM
   267  000001                     __pcstackCOMRAM:
   268                           	opt callstack 0
   269  000001                     ?_interruptadc:
   270                           	opt callstack 0
   271  000001                     ?___xxtofl:
   272                           	opt callstack 0
   273  000001                     interruptadc@adcin:
   274                           	opt callstack 0
   275  000001                     ___xxtofl@val:
   276                           	opt callstack 0
   277                           
   278                           ; 4 bytes @ 0x0
   279  000001                     	ds	2
   280  000003                     ??_interruptadc:
   281                           
   282                           ; 1 bytes @ 0x2
   283  000003                     	ds	2
   284  000005                     ??___xxtofl:
   285                           
   286                           ; 1 bytes @ 0x4
   287  000005                     	ds	4
   288  000009                     ___xxtofl@sign:
   289                           	opt callstack 0
   290                           
   291                           ; 1 bytes @ 0x8
   292  000009                     	ds	1
   293  00000A                     ___xxtofl@exp:
   294                           	opt callstack 0
   295                           
   296                           ; 1 bytes @ 0x9
   297  00000A                     	ds	1
   298  00000B                     ___xxtofl@arg:
   299                           	opt callstack 0
   300                           
   301                           ; 4 bytes @ 0xA
   302  00000B                     	ds	4
   303  00000F                     ?___flmul:
   304                           	opt callstack 0
   305  00000F                     ___flmul@b:
   306                           	opt callstack 0
   307                           
   308                           ; 4 bytes @ 0xE
   309  00000F                     	ds	4
   310  000013                     ___flmul@a:
   311                           	opt callstack 0
   312                           
   313                           ; 4 bytes @ 0x12
   314  000013                     	ds	4
   315  000017                     ??___flmul:
   316                           
   317                           ; 1 bytes @ 0x16
   318  000017                     	ds	4
   319  00001B                     ___flmul@sign:
   320                           	opt callstack 0
   321                           
   322                           ; 1 bytes @ 0x1A
   323  00001B                     	ds	1
   324  00001C                     ___flmul@grs:
   325                           	opt callstack 0
   326                           
   327                           ; 4 bytes @ 0x1B
   328  00001C                     	ds	4
   329  000020                     ___flmul@aexp:
   330                           	opt callstack 0
   331                           
   332                           ; 1 bytes @ 0x1F
   333  000020                     	ds	1
   334  000021                     ___flmul@bexp:
   335                           	opt callstack 0
   336                           
   337                           ; 1 bytes @ 0x20
   338  000021                     	ds	1
   339  000022                     ___flmul@prod:
   340                           	opt callstack 0
   341                           
   342                           ; 4 bytes @ 0x21
   343  000022                     	ds	4
   344  000026                     ___flmul@temp:
   345                           	opt callstack 0
   346                           
   347                           ; 2 bytes @ 0x25
   348  000026                     	ds	2
   349  000028                     ?___fldiv:
   350                           	opt callstack 0
   351  000028                     ___fldiv@b:
   352                           	opt callstack 0
   353                           
   354                           ; 4 bytes @ 0x27
   355  000028                     	ds	4
   356  00002C                     ___fldiv@a:
   357                           	opt callstack 0
   358                           
   359                           ; 4 bytes @ 0x2B
   360  00002C                     	ds	4
   361  000030                     ??___fldiv:
   362                           
   363                           ; 1 bytes @ 0x2F
   364  000030                     	ds	4
   365  000034                     ___fldiv@rem:
   366                           	opt callstack 0
   367                           
   368                           ; 4 bytes @ 0x33
   369  000034                     	ds	4
   370  000038                     ___fldiv@sign:
   371                           	opt callstack 0
   372                           
   373                           ; 1 bytes @ 0x37
   374  000038                     	ds	1
   375  000039                     ___fldiv@new_exp:
   376                           	opt callstack 0
   377                           
   378                           ; 2 bytes @ 0x38
   379  000039                     	ds	2
   380  00003B                     ___fldiv@grs:
   381                           	opt callstack 0
   382                           
   383                           ; 4 bytes @ 0x3A
   384  00003B                     	ds	4
   385  00003F                     ___fldiv@bexp:
   386                           	opt callstack 0
   387                           
   388                           ; 1 bytes @ 0x3E
   389  00003F                     	ds	1
   390  000040                     ___fldiv@aexp:
   391                           	opt callstack 0
   392                           
   393                           ; 1 bytes @ 0x3F
   394  000040                     	ds	1
   395  000041                     ??_main:
   396                           
   397                           ; 1 bytes @ 0x40
   398  000041                     	ds	2
   399                           
   400 ;;
   401 ;;Main: autosize = 0, tempsize = 2, incstack = 0, save=0
   402 ;;
   403 ;; *************** function _main *****************
   404 ;; Defined at:
   405 ;;		line 30 in file "Main.c"
   406 ;; Parameters:    Size  Location     Type
   407 ;;		None
   408 ;; Auto vars:     Size  Location     Type
   409 ;;  a               2    0        int 
   410 ;;  out             2    0        int 
   411 ;; Return value:  Size  Location     Type
   412 ;;                  1    wreg      void 
   413 ;; Registers used:
   414 ;;		wreg, status,2, status,0, prodl, prodh, cstack
   415 ;; Tracked objects:
   416 ;;		On entry : 0/0
   417 ;;		On exit  : 0/0
   418 ;;		Unchanged: 0/0
   419 ;; Data sizes:     COMRAM   BANK0   BANK1   BANK2   BANK3   BANK4   BANK5   BANK6   BANK7
   420 ;;      Params:         0       0       0       0       0       0       0       0       0
   421 ;;      Locals:         2       0       0       0       0       0       0       0       0
   422 ;;      Temps:          2       0       0       0       0       0       0       0       0
   423 ;;      Totals:         4       0       0       0       0       0       0       0       0
   424 ;;Total ram usage:        4 bytes
   425 ;; Hardware stack levels required when called:    1
   426 ;; This function calls:
   427 ;;		_Init8LEDs
   428 ;;		___fldiv
   429 ;;		___flmul
   430 ;;		___xxtofl
   431 ;;		_interruptadc
   432 ;; This function is called by:
   433 ;;		Startup code after reset
   434 ;; This function uses a non-reentrant model
   435 ;;
   436                           
   437                           	psect	text0
   438  000F36                     __ptext0:
   439                           	opt callstack 0
   440  000F36                     _main:
   441                           	opt callstack 30
   442                           
   443                           ;Main.c: 32:     volt = 0.0;
   444                           
   445                           ;incstack = 0
   446  000F36  0E00               	movlw	0
   447  000F38  6E4E               	movwf	_volt,c
   448  000F3A  0E00               	movlw	0
   449  000F3C  6E4F               	movwf	_volt+1,c
   450  000F3E  0E00               	movlw	0
   451  000F40  6E50               	movwf	_volt+2,c
   452  000F42  0E00               	movlw	0
   453  000F44  6E51               	movwf	_volt+3,c
   454                           
   455                           ;Main.c: 33:     adcin = 0;
   456  000F46  0E00               	movlw	0
   457  000F48  6E53               	movwf	_adcin+1,c
   458  000F4A  0E00               	movlw	0
   459  000F4C  6E52               	movwf	_adcin,c
   460                           
   461                           ;Main.c: 35:     int out;;Main.c: 37:     Init8LEDs();
   462  000F4E  EC4A  F008         	call	_Init8LEDs	;wreg free
   463                           
   464                           ;Main.c: 39:     OSCCON = 0x53;
   465  000F52  0E53               	movlw	83
   466  000F54  6ED3               	movwf	4051,c	;volatile
   467                           
   468                           ;Main.c: 40:     ADCON2 = 0x94;
   469  000F56  0E94               	movlw	148
   470  000F58  6EC0               	movwf	4032,c	;volatile
   471                           
   472                           ;Main.c: 41:     ADCON1 = 0x00;
   473  000F5A  0E00               	movlw	0
   474  000F5C  6EC1               	movwf	4033,c	;volatile
   475                           
   476                           ;Main.c: 42:     LATA = 0x00;
   477  000F5E  0E00               	movlw	0
   478  000F60  6E89               	movwf	3977,c	;volatile
   479                           
   480                           ;Main.c: 43:     TRISA = 0x00;
   481  000F62  0E00               	movlw	0
   482  000F64  6E92               	movwf	3986,c	;volatile
   483                           
   484                           ;Main.c: 44:     ANSELA = 0x00;
   485  000F66  0E00               	movlw	0
   486  000F68  010F               	movlb	15	; () banked
   487  000F6A  6F5B               	movwf	91,b	;volatile
   488                           
   489                           ; BSR set to: 15
   490                           ;Main.c: 45:     TRISC = 0x04;
   491  000F6C  0E04               	movlw	4
   492  000F6E  6E94               	movwf	3988,c	;volatile
   493                           
   494                           ; BSR set to: 15
   495                           ;Main.c: 46:     ANSELC = 0x04;
   496  000F70  0E04               	movlw	4
   497  000F72  6F5D               	movwf	93,b	;volatile
   498                           
   499                           ; BSR set to: 15
   500                           ;Main.c: 47:     ADCON0 = 0x39;
   501  000F74  0E39               	movlw	57
   502  000F76  6EC2               	movwf	4034,c	;volatile
   503                           
   504                           ; BSR set to: 15
   505                           ;Main.c: 48:     GIE = 1;
   506  000F78  8EF2               	bsf	4082,7,c	;volatile
   507                           
   508                           ; BSR set to: 15
   509                           ;Main.c: 49:     PEIE = 1;
   510  000F7A  8CF2               	bsf	4082,6,c	;volatile
   511                           
   512                           ; BSR set to: 15
   513                           ;Main.c: 50:     ADIE = 1;
   514  000F7C  8C9D               	bsf	3997,6,c	;volatile
   515  000F7E                     l6942:
   516                           
   517                           ;Main.c: 53:         ADCON0bits.GO=1;
   518  000F7E  82C2               	bsf	4034,1,c	;volatile
   519                           
   520                           ;Main.c: 54:         adcin = interruptadc(adcin);
   521  000F80  C052  F001         	movff	_adcin,interruptadc@adcin
   522  000F84  C053  F002         	movff	_adcin+1,interruptadc@adcin+1
   523  000F88  EC37  F008         	call	_interruptadc	;wreg free
   524  000F8C  C001  F052         	movff	?_interruptadc,_adcin
   525  000F90  C002  F053         	movff	?_interruptadc+1,_adcin+1
   526                           
   527                           ;Main.c: 55:         PORTA = adcin/4;
   528  000F94  C052  F041         	movff	_adcin,??_main
   529  000F98  C053  F042         	movff	_adcin+1,??_main+1
   530  000F9C  90D8               	bcf	status,0,c
   531  000F9E  3242               	rrcf	??_main+1,f,c
   532  000FA0  3241               	rrcf	??_main,f,c
   533  000FA2  90D8               	bcf	status,0,c
   534  000FA4  3242               	rrcf	??_main+1,f,c
   535  000FA6  3241               	rrcf	??_main,f,c
   536  000FA8  5041               	movf	??_main,w,c
   537  000FAA  6E80               	movwf	3968,c	;volatile
   538                           
   539                           ;Main.c: 56:         volt = (adcin*5.0)/1023.0;
   540  000FAC  0E00               	movlw	0
   541  000FAE  6E13               	movwf	___flmul@a,c
   542  000FB0  0E00               	movlw	0
   543  000FB2  6E14               	movwf	___flmul@a+1,c
   544  000FB4  0EA0               	movlw	160
   545  000FB6  6E15               	movwf	___flmul@a+2,c
   546  000FB8  0E40               	movlw	64
   547  000FBA  6E16               	movwf	___flmul@a+3,c
   548  000FBC  C052  F001         	movff	_adcin,___xxtofl@val
   549  000FC0  C053  F002         	movff	_adcin+1,___xxtofl@val+1
   550  000FC4  6A03               	clrf	___xxtofl@val+2,c
   551  000FC6  6A04               	clrf	___xxtofl@val+3,c
   552  000FC8  0E00               	movlw	0
   553  000FCA  ECFB  F006         	call	___xxtofl
   554  000FCE  C001  F00F         	movff	?___xxtofl,___flmul@b
   555  000FD2  C002  F010         	movff	?___xxtofl+1,___flmul@b+1
   556  000FD6  C003  F011         	movff	?___xxtofl+2,___flmul@b+2
   557  000FDA  C004  F012         	movff	?___xxtofl+3,___flmul@b+3
   558  000FDE  EC0E  F004         	call	___flmul	;wreg free
   559  000FE2  C00F  F028         	movff	?___flmul,___fldiv@b
   560  000FE6  C010  F029         	movff	?___flmul+1,___fldiv@b+1
   561  000FEA  C011  F02A         	movff	?___flmul+2,___fldiv@b+2
   562  000FEE  C012  F02B         	movff	?___flmul+3,___fldiv@b+3
   563  000FF2  0E00               	movlw	0
   564  000FF4  6E2C               	movwf	___fldiv@a,c
   565  000FF6  0EC0               	movlw	192
   566  000FF8  6E2D               	movwf	___fldiv@a+1,c
   567  000FFA  0E7F               	movlw	127
   568  000FFC  6E2E               	movwf	___fldiv@a+2,c
   569  000FFE  0E44               	movlw	68
   570  001000  6E2F               	movwf	___fldiv@a+3,c
   571  001002  ECB7  F005         	call	___fldiv	;wreg free
   572  001006  C028  F04E         	movff	?___fldiv,_volt
   573  00100A  C029  F04F         	movff	?___fldiv+1,_volt+1
   574  00100E  C02A  F050         	movff	?___fldiv+2,_volt+2
   575  001012  C02B  F051         	movff	?___fldiv+3,_volt+3
   576  001016  D7B3               	goto	l6942
   577  001018                     __end_of_main:
   578                           	opt callstack 0
   579                           
   580 ;; *************** function _interruptadc *****************
   581 ;; Defined at:
   582 ;;		line 61 in file "Main.c"
   583 ;; Parameters:    Size  Location     Type
   584 ;;  adcin           2    0[COMRAM] int 
   585 ;; Auto vars:     Size  Location     Type
   586 ;;		None
   587 ;; Return value:  Size  Location     Type
   588 ;;                  2    0[COMRAM] int 
   589 ;; Registers used:
   590 ;;		wreg, status,2, status,0
   591 ;; Tracked objects:
   592 ;;		On entry : 0/0
   593 ;;		On exit  : 0/0
   594 ;;		Unchanged: 0/0
   595 ;; Data sizes:     COMRAM   BANK0   BANK1   BANK2   BANK3   BANK4   BANK5   BANK6   BANK7
   596 ;;      Params:         2       0       0       0       0       0       0       0       0
   597 ;;      Locals:         0       0       0       0       0       0       0       0       0
   598 ;;      Temps:          2       0       0       0       0       0       0       0       0
   599 ;;      Totals:         4       0       0       0       0       0       0       0       0
   600 ;;Total ram usage:        4 bytes
   601 ;; Hardware stack levels used:    1
   602 ;; This function calls:
   603 ;;		Nothing
   604 ;; This function is called by:
   605 ;;		_main
   606 ;; This function uses a non-reentrant model
   607 ;;
   608                           
   609                           	psect	text1
   610  00106E                     __ptext1:
   611                           	opt callstack 0
   612  00106E                     _interruptadc:
   613                           	opt callstack 30
   614                           
   615                           ;Main.c: 62:     if(ADIF==1) {
   616                           
   617                           ;incstack = 0
   618  00106E  AC9E               	btfss	3998,6,c	;volatile
   619  001070  D00A               	goto	l6464
   620                           
   621                           ;Main.c: 63:         ADIE=0;
   622  001072  9C9D               	bcf	3997,6,c	;volatile
   623                           
   624                           ;Main.c: 64:         adcin = (ADRESH<<8)+ADRESL;
   625  001074  50C4               	movf	4036,w,c	;volatile
   626  001076  6E04               	movwf	(??_interruptadc+1)& (0+255),c
   627  001078  6A03               	clrf	??_interruptadc& (0+255),c
   628  00107A  50C3               	movf	4035,w,c	;volatile
   629  00107C  2403               	addwf	??_interruptadc,w,c
   630  00107E  6E01               	movwf	interruptadc@adcin,c
   631  001080  0E00               	movlw	0
   632  001082  2004               	addwfc	??_interruptadc+1,w,c
   633  001084  6E02               	movwf	interruptadc@adcin+1,c
   634  001086                     l6464:
   635                           
   636                           ;Main.c: 66:     ADIE=1;
   637  001086  8C9D               	bsf	3997,6,c	;volatile
   638                           
   639                           ;Main.c: 67:     ADIF=0;
   640  001088  9C9E               	bcf	3998,6,c	;volatile
   641                           
   642                           ;Main.c: 68:     return adcin;
   643  00108A  C001  F001         	movff	interruptadc@adcin,?_interruptadc
   644  00108E  C002  F002         	movff	interruptadc@adcin+1,?_interruptadc+1
   645  001092  0012               	return		;funcret
   646  001094                     __end_of_interruptadc:
   647                           	opt callstack 0
   648                           
   649 ;; *************** function ___xxtofl *****************
   650 ;; Defined at:
   651 ;;		line 10 in file "C:\Program Files (x86)\Microchip\xc8\v2.05\pic\sources\c99\common\xxtofl.c"
   652 ;; Parameters:    Size  Location     Type
   653 ;;  sign            1    wreg     unsigned char 
   654 ;;  val             4    0[COMRAM] long 
   655 ;; Auto vars:     Size  Location     Type
   656 ;;  sign            1    8[COMRAM] unsigned char 
   657 ;;  arg             4   10[COMRAM] unsigned long 
   658 ;;  exp             1    9[COMRAM] unsigned char 
   659 ;; Return value:  Size  Location     Type
   660 ;;                  4    0[COMRAM] unsigned char 
   661 ;; Registers used:
   662 ;;		wreg, status,2, status,0
   663 ;; Tracked objects:
   664 ;;		On entry : 0/0
   665 ;;		On exit  : 0/0
   666 ;;		Unchanged: 0/0
   667 ;; Data sizes:     COMRAM   BANK0   BANK1   BANK2   BANK3   BANK4   BANK5   BANK6   BANK7
   668 ;;      Params:         4       0       0       0       0       0       0       0       0
   669 ;;      Locals:         6       0       0       0       0       0       0       0       0
   670 ;;      Temps:          4       0       0       0       0       0       0       0       0
   671 ;;      Totals:        14       0       0       0       0       0       0       0       0
   672 ;;Total ram usage:       14 bytes
   673 ;; Hardware stack levels used:    1
   674 ;; This function calls:
   675 ;;		Nothing
   676 ;; This function is called by:
   677 ;;		_main
   678 ;; This function uses a non-reentrant model
   679 ;;
   680                           
   681                           	psect	text2
   682  000DF6                     __ptext2:
   683                           	opt callstack 0
   684  000DF6                     ___xxtofl:
   685                           	opt callstack 30
   686                           
   687                           ;incstack = 0
   688                           ;___xxtofl@sign stored from wreg
   689  000DF6  6E09               	movwf	___xxtofl@sign,c
   690  000DF8  5009               	movf	___xxtofl@sign,w,c
   691  000DFA  A4D8               	btfss	status,2,c
   692  000DFC  AE04               	btfss	___xxtofl@val+3,7,c
   693  000DFE  D01A               	goto	l1556
   694  000E00  C001  F005         	movff	___xxtofl@val,??___xxtofl
   695  000E04  C002  F006         	movff	___xxtofl@val+1,??___xxtofl+1
   696  000E08  C003  F007         	movff	___xxtofl@val+2,??___xxtofl+2
   697  000E0C  C004  F008         	movff	___xxtofl@val+3,??___xxtofl+3
   698  000E10  1E05               	comf	??___xxtofl,f,c
   699  000E12  1E06               	comf	??___xxtofl+1,f,c
   700  000E14  1E07               	comf	??___xxtofl+2,f,c
   701  000E16  1E08               	comf	??___xxtofl+3,f,c
   702  000E18  2A05               	incf	??___xxtofl,f,c
   703  000E1A  0E00               	movlw	0
   704  000E1C  2206               	addwfc	??___xxtofl+1,f,c
   705  000E1E  2207               	addwfc	??___xxtofl+2,f,c
   706  000E20  2208               	addwfc	??___xxtofl+3,f,c
   707  000E22  C005  F00B         	movff	??___xxtofl,___xxtofl@arg
   708  000E26  C006  F00C         	movff	??___xxtofl+1,___xxtofl@arg+1
   709  000E2A  C007  F00D         	movff	??___xxtofl+2,___xxtofl@arg+2
   710  000E2E  C008  F00E         	movff	??___xxtofl+3,___xxtofl@arg+3
   711  000E32  D008               	goto	l6764
   712  000E34                     l1556:
   713  000E34  C001  F00B         	movff	___xxtofl@val,___xxtofl@arg
   714  000E38  C002  F00C         	movff	___xxtofl@val+1,___xxtofl@arg+1
   715  000E3C  C003  F00D         	movff	___xxtofl@val+2,___xxtofl@arg+2
   716  000E40  C004  F00E         	movff	___xxtofl@val+3,___xxtofl@arg+3
   717  000E44                     l6764:
   718  000E44  5001               	movf	___xxtofl@val,w,c
   719  000E46  1002               	iorwf	___xxtofl@val+1,w,c
   720  000E48  1003               	iorwf	___xxtofl@val+2,w,c
   721  000E4A  1004               	iorwf	___xxtofl@val+3,w,c
   722  000E4C  A4D8               	btfss	status,2,c
   723  000E4E  D009               	goto	l6770
   724  000E50  0E00               	movlw	0
   725  000E52  6E01               	movwf	?___xxtofl,c
   726  000E54  0E00               	movlw	0
   727  000E56  6E02               	movwf	?___xxtofl+1,c
   728  000E58  0E00               	movlw	0
   729  000E5A  6E03               	movwf	?___xxtofl+2,c
   730  000E5C  0E00               	movlw	0
   731  000E5E  6E04               	movwf	?___xxtofl+3,c
   732  000E60  0012               	return	
   733  000E62                     l6770:
   734  000E62  0E96               	movlw	150
   735  000E64  6E0A               	movwf	___xxtofl@exp,c
   736  000E66  D006               	goto	l6774
   737  000E68                     l6772:
   738  000E68  2A0A               	incf	___xxtofl@exp,f,c
   739  000E6A  90D8               	bcf	status,0,c
   740  000E6C  320E               	rrcf	___xxtofl@arg+3,f,c
   741  000E6E  320D               	rrcf	___xxtofl@arg+2,f,c
   742  000E70  320C               	rrcf	___xxtofl@arg+1,f,c
   743  000E72  320B               	rrcf	___xxtofl@arg,f,c
   744  000E74                     l6774:
   745  000E74  0E00               	movlw	0
   746  000E76  140B               	andwf	___xxtofl@arg,w,c
   747  000E78  6E05               	movwf	??___xxtofl& (0+255),c
   748  000E7A  0E00               	movlw	0
   749  000E7C  140C               	andwf	___xxtofl@arg+1,w,c
   750  000E7E  6E06               	movwf	(??___xxtofl+1)& (0+255),c
   751  000E80  0E00               	movlw	0
   752  000E82  140D               	andwf	___xxtofl@arg+2,w,c
   753  000E84  6E07               	movwf	(??___xxtofl+2)& (0+255),c
   754  000E86  0EFE               	movlw	254
   755  000E88  140E               	andwf	___xxtofl@arg+3,w,c
   756  000E8A  6E08               	movwf	(??___xxtofl+3)& (0+255),c
   757  000E8C  5005               	movf	??___xxtofl,w,c
   758  000E8E  1006               	iorwf	??___xxtofl+1,w,c
   759  000E90  1007               	iorwf	??___xxtofl+2,w,c
   760  000E92  1008               	iorwf	??___xxtofl+3,w,c
   761  000E94  B4D8               	btfsc	status,2,c
   762  000E96  D00D               	goto	l1563
   763  000E98  D7E7               	goto	l6772
   764  000E9A                     l6776:
   765  000E9A  2A0A               	incf	___xxtofl@exp,f,c
   766  000E9C  0E01               	movlw	1
   767  000E9E  260B               	addwf	___xxtofl@arg,f,c
   768  000EA0  0E00               	movlw	0
   769  000EA2  220C               	addwfc	___xxtofl@arg+1,f,c
   770  000EA4  220D               	addwfc	___xxtofl@arg+2,f,c
   771  000EA6  220E               	addwfc	___xxtofl@arg+3,f,c
   772  000EA8  90D8               	bcf	status,0,c
   773  000EAA  320E               	rrcf	___xxtofl@arg+3,f,c
   774  000EAC  320D               	rrcf	___xxtofl@arg+2,f,c
   775  000EAE  320C               	rrcf	___xxtofl@arg+1,f,c
   776  000EB0  320B               	rrcf	___xxtofl@arg,f,c
   777  000EB2                     l1563:
   778  000EB2  0E00               	movlw	0
   779  000EB4  140B               	andwf	___xxtofl@arg,w,c
   780  000EB6  6E05               	movwf	??___xxtofl& (0+255),c
   781  000EB8  0E00               	movlw	0
   782  000EBA  140C               	andwf	___xxtofl@arg+1,w,c
   783  000EBC  6E06               	movwf	(??___xxtofl+1)& (0+255),c
   784  000EBE  0E00               	movlw	0
   785  000EC0  140D               	andwf	___xxtofl@arg+2,w,c
   786  000EC2  6E07               	movwf	(??___xxtofl+2)& (0+255),c
   787  000EC4  0EFF               	movlw	255
   788  000EC6  140E               	andwf	___xxtofl@arg+3,w,c
   789  000EC8  6E08               	movwf	(??___xxtofl+3)& (0+255),c
   790  000ECA  5005               	movf	??___xxtofl,w,c
   791  000ECC  1006               	iorwf	??___xxtofl+1,w,c
   792  000ECE  1007               	iorwf	??___xxtofl+2,w,c
   793  000ED0  1008               	iorwf	??___xxtofl+3,w,c
   794  000ED2  B4D8               	btfsc	status,2,c
   795  000ED4  D007               	goto	l6784
   796  000ED6  D7E1               	goto	l6776
   797  000ED8                     l6782:
   798  000ED8  060A               	decf	___xxtofl@exp,f,c
   799  000EDA  90D8               	bcf	status,0,c
   800  000EDC  360B               	rlcf	___xxtofl@arg,f,c
   801  000EDE  360C               	rlcf	___xxtofl@arg+1,f,c
   802  000EE0  360D               	rlcf	___xxtofl@arg+2,f,c
   803  000EE2  360E               	rlcf	___xxtofl@arg+3,f,c
   804  000EE4                     l6784:
   805  000EE4  BE0D               	btfsc	___xxtofl@arg+2,7,c
   806  000EE6  D003               	goto	u9460
   807  000EE8  0E02               	movlw	2
   808  000EEA  600A               	cpfslt	___xxtofl@exp,c
   809  000EEC  D7F5               	goto	l6782
   810  000EEE                     u9460:
   811  000EEE  A00A               	btfss	___xxtofl@exp,0,c
   812  000EF0  9E0D               	bcf	___xxtofl@arg+2,7,c
   813  000EF2  90D8               	bcf	status,0,c
   814  000EF4  320A               	rrcf	___xxtofl@exp,f,c
   815  000EF6  C00A  F005         	movff	___xxtofl@exp,??___xxtofl
   816  000EFA  6A06               	clrf	(??___xxtofl+1)& (0+255),c
   817  000EFC  6A07               	clrf	(??___xxtofl+2)& (0+255),c
   818  000EFE  6A08               	clrf	(??___xxtofl+3)& (0+255),c
   819  000F00  C005  F008         	movff	??___xxtofl,??___xxtofl+3
   820  000F04  6A07               	clrf	??___xxtofl+2,c
   821  000F06  6A06               	clrf	??___xxtofl+1,c
   822  000F08  6A05               	clrf	??___xxtofl,c
   823  000F0A  5005               	movf	??___xxtofl,w,c
   824  000F0C  120B               	iorwf	___xxtofl@arg,f,c
   825  000F0E  5006               	movf	??___xxtofl+1,w,c
   826  000F10  120C               	iorwf	___xxtofl@arg+1,f,c
   827  000F12  5007               	movf	??___xxtofl+2,w,c
   828  000F14  120D               	iorwf	___xxtofl@arg+2,f,c
   829  000F16  5008               	movf	??___xxtofl+3,w,c
   830  000F18  120E               	iorwf	___xxtofl@arg+3,f,c
   831  000F1A  5009               	movf	___xxtofl@sign,w,c
   832  000F1C  A4D8               	btfss	status,2,c
   833  000F1E  AE04               	btfss	___xxtofl@val+3,7,c
   834  000F20  D001               	goto	l6800
   835  000F22  8E0E               	bsf	___xxtofl@arg+3,7,c
   836  000F24                     l6800:
   837  000F24  C00B  F001         	movff	___xxtofl@arg,?___xxtofl
   838  000F28  C00C  F002         	movff	___xxtofl@arg+1,?___xxtofl+1
   839  000F2C  C00D  F003         	movff	___xxtofl@arg+2,?___xxtofl+2
   840  000F30  C00E  F004         	movff	___xxtofl@arg+3,?___xxtofl+3
   841  000F34  0012               	return		;funcret
   842  000F36                     __end_of___xxtofl:
   843                           	opt callstack 0
   844                           
   845 ;; *************** function ___flmul *****************
   846 ;; Defined at:
   847 ;;		line 8 in file "C:\Program Files (x86)\Microchip\xc8\v2.05\pic\sources\c99\common\sprcmul.c"
   848 ;; Parameters:    Size  Location     Type
   849 ;;  b               4   14[COMRAM] unsigned char 
   850 ;;  a               4   18[COMRAM] unsigned char 
   851 ;; Auto vars:     Size  Location     Type
   852 ;;  prod            4   33[COMRAM] struct .
   853 ;;  grs             4   27[COMRAM] unsigned long 
   854 ;;  temp            2   37[COMRAM] struct .
   855 ;;  bexp            1   32[COMRAM] unsigned char 
   856 ;;  aexp            1   31[COMRAM] unsigned char 
   857 ;;  sign            1   26[COMRAM] unsigned char 
   858 ;; Return value:  Size  Location     Type
   859 ;;                  4   14[COMRAM] unsigned char 
   860 ;; Registers used:
   861 ;;		wreg, status,2, status,0, prodl, prodh
   862 ;; Tracked objects:
   863 ;;		On entry : 0/0
   864 ;;		On exit  : 0/0
   865 ;;		Unchanged: 0/0
   866 ;; Data sizes:     COMRAM   BANK0   BANK1   BANK2   BANK3   BANK4   BANK5   BANK6   BANK7
   867 ;;      Params:         8       0       0       0       0       0       0       0       0
   868 ;;      Locals:        13       0       0       0       0       0       0       0       0
   869 ;;      Temps:          4       0       0       0       0       0       0       0       0
   870 ;;      Totals:        25       0       0       0       0       0       0       0       0
   871 ;;Total ram usage:       25 bytes
   872 ;; Hardware stack levels used:    1
   873 ;; This function calls:
   874 ;;		Nothing
   875 ;; This function is called by:
   876 ;;		_main
   877 ;; This function uses a non-reentrant model
   878 ;;
   879                           
   880                           	psect	text3
   881  00081C                     __ptext3:
   882                           	opt callstack 0
   883  00081C                     ___flmul:
   884                           	opt callstack 30
   885                           
   886                           ;incstack = 0
   887  00081C  5012               	movf	___flmul@b+3,w,c
   888  00081E  0B80               	andlw	128
   889  000820  6E1B               	movwf	___flmul@sign,c
   890  000822  5012               	movf	___flmul@b+3,w,c
   891  000824  2412               	addwf	___flmul@b+3,w,c
   892  000826  6E21               	movwf	___flmul@bexp,c
   893  000828  BE11               	btfsc	___flmul@b+2,7,c
   894  00082A  8021               	bsf	___flmul@bexp,0,c
   895  00082C  5021               	movf	___flmul@bexp,w,c
   896  00082E  B4D8               	btfsc	status,2,c
   897  000830  D00D               	goto	l6642
   898  000832  2821               	incf	___flmul@bexp,w,c
   899  000834  A4D8               	btfss	status,2,c
   900  000836  D008               	goto	l6640
   901  000838  0E00               	movlw	0
   902  00083A  6E0F               	movwf	___flmul@b,c
   903  00083C  0E00               	movlw	0
   904  00083E  6E10               	movwf	___flmul@b+1,c
   905  000840  0E00               	movlw	0
   906  000842  6E11               	movwf	___flmul@b+2,c
   907  000844  0E00               	movlw	0
   908  000846  6E12               	movwf	___flmul@b+3,c
   909  000848                     l6640:
   910  000848  8E11               	bsf	___flmul@b+2,7,c
   911  00084A  D008               	goto	l6644
   912  00084C                     l6642:
   913  00084C  0E00               	movlw	0
   914  00084E  6E0F               	movwf	___flmul@b,c
   915  000850  0E00               	movlw	0
   916  000852  6E10               	movwf	___flmul@b+1,c
   917  000854  0E00               	movlw	0
   918  000856  6E11               	movwf	___flmul@b+2,c
   919  000858  0E00               	movlw	0
   920  00085A  6E12               	movwf	___flmul@b+3,c
   921  00085C                     l6644:
   922  00085C  5016               	movf	___flmul@a+3,w,c
   923  00085E  0B80               	andlw	128
   924  000860  1A1B               	xorwf	___flmul@sign,f,c
   925  000862  5016               	movf	___flmul@a+3,w,c
   926  000864  2416               	addwf	___flmul@a+3,w,c
   927  000866  6E20               	movwf	___flmul@aexp,c
   928  000868  BE15               	btfsc	___flmul@a+2,7,c
   929  00086A  8020               	bsf	___flmul@aexp,0,c
   930  00086C  5020               	movf	___flmul@aexp,w,c
   931  00086E  B4D8               	btfsc	status,2,c
   932  000870  D00D               	goto	l6660
   933  000872  2820               	incf	___flmul@aexp,w,c
   934  000874  A4D8               	btfss	status,2,c
   935  000876  D008               	goto	l6658
   936  000878  0E00               	movlw	0
   937  00087A  6E13               	movwf	___flmul@a,c
   938  00087C  0E00               	movlw	0
   939  00087E  6E14               	movwf	___flmul@a+1,c
   940  000880  0E00               	movlw	0
   941  000882  6E15               	movwf	___flmul@a+2,c
   942  000884  0E00               	movlw	0
   943  000886  6E16               	movwf	___flmul@a+3,c
   944  000888                     l6658:
   945  000888  8E15               	bsf	___flmul@a+2,7,c
   946  00088A  D008               	goto	l1515
   947  00088C                     l6660:
   948  00088C  0E00               	movlw	0
   949  00088E  6E13               	movwf	___flmul@a,c
   950  000890  0E00               	movlw	0
   951  000892  6E14               	movwf	___flmul@a+1,c
   952  000894  0E00               	movlw	0
   953  000896  6E15               	movwf	___flmul@a+2,c
   954  000898  0E00               	movlw	0
   955  00089A  6E16               	movwf	___flmul@a+3,c
   956  00089C                     l1515:
   957  00089C  5020               	movf	___flmul@aexp,w,c
   958  00089E  B4D8               	btfsc	status,2,c
   959  0008A0  D003               	goto	u9280
   960  0008A2  5021               	movf	___flmul@bexp,w,c
   961  0008A4  A4D8               	btfss	status,2,c
   962  0008A6  D009               	goto	l6668
   963  0008A8                     u9280:
   964  0008A8  0E00               	movlw	0
   965  0008AA  6E0F               	movwf	?___flmul,c
   966  0008AC  0E00               	movlw	0
   967  0008AE  6E10               	movwf	?___flmul+1,c
   968  0008B0  0E00               	movlw	0
   969  0008B2  6E11               	movwf	?___flmul+2,c
   970  0008B4  0E00               	movlw	0
   971  0008B6  6E12               	movwf	?___flmul+3,c
   972  0008B8  0012               	return	
   973  0008BA                     l6668:
   974  0008BA  5015               	movf	___flmul@a+2,w,c
   975  0008BC  020F               	mulwf	___flmul@b,c
   976  0008BE  CFF3 F026          	movff	prodl,___flmul@temp
   977  0008C2  CFF4 F027          	movff	prodh,___flmul@temp+1
   978  0008C6  5026               	movf	___flmul@temp,w,c
   979  0008C8  6E1C               	movwf	___flmul@grs,c
   980  0008CA  6A1D               	clrf	___flmul@grs+1,c
   981  0008CC  6A1E               	clrf	___flmul@grs+2,c
   982  0008CE  6A1F               	clrf	___flmul@grs+3,c
   983  0008D0  5027               	movf	___flmul@temp+1,w,c
   984  0008D2  6E22               	movwf	___flmul@prod,c
   985  0008D4  6A23               	clrf	___flmul@prod+1,c
   986  0008D6  6A24               	clrf	___flmul@prod+2,c
   987  0008D8  6A25               	clrf	___flmul@prod+3,c
   988  0008DA  5014               	movf	___flmul@a+1,w,c
   989  0008DC  0210               	mulwf	___flmul@b+1,c
   990  0008DE  CFF3 F026          	movff	prodl,___flmul@temp
   991  0008E2  CFF4 F027          	movff	prodh,___flmul@temp+1
   992  0008E6  5026               	movf	___flmul@temp,w,c
   993  0008E8  261C               	addwf	___flmul@grs,f,c
   994  0008EA  0E00               	movlw	0
   995  0008EC  221D               	addwfc	___flmul@grs+1,f,c
   996  0008EE  221E               	addwfc	___flmul@grs+2,f,c
   997  0008F0  221F               	addwfc	___flmul@grs+3,f,c
   998  0008F2  5027               	movf	___flmul@temp+1,w,c
   999  0008F4  2622               	addwf	___flmul@prod,f,c
  1000  0008F6  0E00               	movlw	0
  1001  0008F8  2223               	addwfc	___flmul@prod+1,f,c
  1002  0008FA  2224               	addwfc	___flmul@prod+2,f,c
  1003  0008FC  2225               	addwfc	___flmul@prod+3,f,c
  1004  0008FE  5013               	movf	___flmul@a,w,c
  1005  000900  0211               	mulwf	___flmul@b+2,c
  1006  000902  CFF3 F026          	movff	prodl,___flmul@temp
  1007  000906  CFF4 F027          	movff	prodh,___flmul@temp+1
  1008  00090A  5026               	movf	___flmul@temp,w,c
  1009  00090C  261C               	addwf	___flmul@grs,f,c
  1010  00090E  0E00               	movlw	0
  1011  000910  221D               	addwfc	___flmul@grs+1,f,c
  1012  000912  221E               	addwfc	___flmul@grs+2,f,c
  1013  000914  221F               	addwfc	___flmul@grs+3,f,c
  1014  000916  5027               	movf	___flmul@temp+1,w,c
  1015  000918  2622               	addwf	___flmul@prod,f,c
  1016  00091A  0E00               	movlw	0
  1017  00091C  2223               	addwfc	___flmul@prod+1,f,c
  1018  00091E  2224               	addwfc	___flmul@prod+2,f,c
  1019  000920  2225               	addwfc	___flmul@prod+3,f,c
  1020  000922  C01E  F01F         	movff	___flmul@grs+2,___flmul@grs+3
  1021  000926  C01D  F01E         	movff	___flmul@grs+1,___flmul@grs+2
  1022  00092A  C01C  F01D         	movff	___flmul@grs,___flmul@grs+1
  1023  00092E  6A1C               	clrf	___flmul@grs,c
  1024  000930  5013               	movf	___flmul@a,w,c
  1025  000932  0210               	mulwf	___flmul@b+1,c
  1026  000934  CFF3 F026          	movff	prodl,___flmul@temp
  1027  000938  CFF4 F027          	movff	prodh,___flmul@temp+1
  1028  00093C  5026               	movf	___flmul@temp,w,c
  1029  00093E  261C               	addwf	___flmul@grs,f,c
  1030  000940  5027               	movf	___flmul@temp+1,w,c
  1031  000942  221D               	addwfc	___flmul@grs+1,f,c
  1032  000944  0E00               	movlw	0
  1033  000946  221E               	addwfc	___flmul@grs+2,f,c
  1034  000948  0E00               	movlw	0
  1035  00094A  221F               	addwfc	___flmul@grs+3,f,c
  1036  00094C  5014               	movf	___flmul@a+1,w,c
  1037  00094E  020F               	mulwf	___flmul@b,c
  1038  000950  CFF3 F026          	movff	prodl,___flmul@temp
  1039  000954  CFF4 F027          	movff	prodh,___flmul@temp+1
  1040  000958  5026               	movf	___flmul@temp,w,c
  1041  00095A  261C               	addwf	___flmul@grs,f,c
  1042  00095C  5027               	movf	___flmul@temp+1,w,c
  1043  00095E  221D               	addwfc	___flmul@grs+1,f,c
  1044  000960  0E00               	movlw	0
  1045  000962  221E               	addwfc	___flmul@grs+2,f,c
  1046  000964  0E00               	movlw	0
  1047  000966  221F               	addwfc	___flmul@grs+3,f,c
  1048  000968  C01E  F01F         	movff	___flmul@grs+2,___flmul@grs+3
  1049  00096C  C01D  F01E         	movff	___flmul@grs+1,___flmul@grs+2
  1050  000970  C01C  F01D         	movff	___flmul@grs,___flmul@grs+1
  1051  000974  6A1C               	clrf	___flmul@grs,c
  1052  000976  5013               	movf	___flmul@a,w,c
  1053  000978  020F               	mulwf	___flmul@b,c
  1054  00097A  CFF3 F026          	movff	prodl,___flmul@temp
  1055  00097E  CFF4 F027          	movff	prodh,___flmul@temp+1
  1056  000982  5026               	movf	___flmul@temp,w,c
  1057  000984  261C               	addwf	___flmul@grs,f,c
  1058  000986  5027               	movf	___flmul@temp+1,w,c
  1059  000988  221D               	addwfc	___flmul@grs+1,f,c
  1060  00098A  0E00               	movlw	0
  1061  00098C  221E               	addwfc	___flmul@grs+2,f,c
  1062  00098E  0E00               	movlw	0
  1063  000990  221F               	addwfc	___flmul@grs+3,f,c
  1064  000992  5015               	movf	___flmul@a+2,w,c
  1065  000994  0210               	mulwf	___flmul@b+1,c
  1066  000996  CFF3 F026          	movff	prodl,___flmul@temp
  1067  00099A  CFF4 F027          	movff	prodh,___flmul@temp+1
  1068  00099E  5026               	movf	___flmul@temp,w,c
  1069  0009A0  2622               	addwf	___flmul@prod,f,c
  1070  0009A2  5027               	movf	___flmul@temp+1,w,c
  1071  0009A4  2223               	addwfc	___flmul@prod+1,f,c
  1072  0009A6  0E00               	movlw	0
  1073  0009A8  2224               	addwfc	___flmul@prod+2,f,c
  1074  0009AA  0E00               	movlw	0
  1075  0009AC  2225               	addwfc	___flmul@prod+3,f,c
  1076  0009AE  5014               	movf	___flmul@a+1,w,c
  1077  0009B0  0211               	mulwf	___flmul@b+2,c
  1078  0009B2  CFF3 F026          	movff	prodl,___flmul@temp
  1079  0009B6  CFF4 F027          	movff	prodh,___flmul@temp+1
  1080  0009BA  5026               	movf	___flmul@temp,w,c
  1081  0009BC  2622               	addwf	___flmul@prod,f,c
  1082  0009BE  5027               	movf	___flmul@temp+1,w,c
  1083  0009C0  2223               	addwfc	___flmul@prod+1,f,c
  1084  0009C2  0E00               	movlw	0
  1085  0009C4  2224               	addwfc	___flmul@prod+2,f,c
  1086  0009C6  0E00               	movlw	0
  1087  0009C8  2225               	addwfc	___flmul@prod+3,f,c
  1088  0009CA  5015               	movf	___flmul@a+2,w,c
  1089  0009CC  0211               	mulwf	___flmul@b+2,c
  1090  0009CE  CFF3 F026          	movff	prodl,___flmul@temp
  1091  0009D2  CFF4 F027          	movff	prodh,___flmul@temp+1
  1092  0009D6  5026               	movf	___flmul@temp,w,c
  1093  0009D8  6E17               	movwf	??___flmul& (0+255),c
  1094  0009DA  5027               	movf	___flmul@temp+1,w,c
  1095  0009DC  6E18               	movwf	(??___flmul+1)& (0+255),c
  1096  0009DE  6A19               	clrf	(??___flmul+2)& (0+255),c
  1097  0009E0  6A1A               	clrf	(??___flmul+3)& (0+255),c
  1098  0009E2  C019  F01A         	movff	??___flmul+2,??___flmul+3
  1099  0009E6  C018  F019         	movff	??___flmul+1,??___flmul+2
  1100  0009EA  C017  F018         	movff	??___flmul,??___flmul+1
  1101  0009EE  6A17               	clrf	??___flmul,c
  1102  0009F0  5017               	movf	??___flmul,w,c
  1103  0009F2  2622               	addwf	___flmul@prod,f,c
  1104  0009F4  5018               	movf	??___flmul+1,w,c
  1105  0009F6  2223               	addwfc	___flmul@prod+1,f,c
  1106  0009F8  5019               	movf	??___flmul+2,w,c
  1107  0009FA  2224               	addwfc	___flmul@prod+2,f,c
  1108  0009FC  501A               	movf	??___flmul+3,w,c
  1109  0009FE  2225               	addwfc	___flmul@prod+3,f,c
  1110  000A00  C01C  F017         	movff	___flmul@grs,??___flmul
  1111  000A04  C01D  F018         	movff	___flmul@grs+1,??___flmul+1
  1112  000A08  C01E  F019         	movff	___flmul@grs+2,??___flmul+2
  1113  000A0C  C01F  F01A         	movff	___flmul@grs+3,??___flmul+3
  1114  000A10  0E19               	movlw	25
  1115  000A12  D005               	goto	u9290
  1116  000A14                     u9295:
  1117  000A14  90D8               	bcf	status,0,c
  1118  000A16  321A               	rrcf	??___flmul+3,f,c
  1119  000A18  3219               	rrcf	??___flmul+2,f,c
  1120  000A1A  3218               	rrcf	??___flmul+1,f,c
  1121  000A1C  3217               	rrcf	??___flmul,f,c
  1122  000A1E                     u9290:
  1123  000A1E  2EE8               	decfsz	wreg,f,c
  1124  000A20  D7F9               	goto	u9295
  1125  000A22  5017               	movf	??___flmul,w,c
  1126  000A24  2622               	addwf	___flmul@prod,f,c
  1127  000A26  5018               	movf	??___flmul+1,w,c
  1128  000A28  2223               	addwfc	___flmul@prod+1,f,c
  1129  000A2A  5019               	movf	??___flmul+2,w,c
  1130  000A2C  2224               	addwfc	___flmul@prod+2,f,c
  1131  000A2E  501A               	movf	??___flmul+3,w,c
  1132  000A30  2225               	addwfc	___flmul@prod+3,f,c
  1133  000A32  C01E  F01F         	movff	___flmul@grs+2,___flmul@grs+3
  1134  000A36  C01D  F01E         	movff	___flmul@grs+1,___flmul@grs+2
  1135  000A3A  C01C  F01D         	movff	___flmul@grs,___flmul@grs+1
  1136  000A3E  6A1C               	clrf	___flmul@grs,c
  1137  000A40  5020               	movf	___flmul@aexp,w,c
  1138  000A42  C021  F017         	movff	___flmul@bexp,??___flmul
  1139  000A46  6A18               	clrf	(??___flmul+1)& (0+255),c
  1140  000A48  2617               	addwf	??___flmul,f,c
  1141  000A4A  0E00               	movlw	0
  1142  000A4C  2218               	addwfc	??___flmul+1,f,c
  1143  000A4E  0E82               	movlw	130
  1144  000A50  2417               	addwf	??___flmul,w,c
  1145  000A52  6E26               	movwf	___flmul@temp,c
  1146  000A54  0EFF               	movlw	255
  1147  000A56  2018               	addwfc	??___flmul+1,w,c
  1148  000A58  6E27               	movwf	___flmul@temp+1,c
  1149  000A5A  D00F               	goto	l6716
  1150  000A5C                     l6710:
  1151  000A5C  90D8               	bcf	status,0,c
  1152  000A5E  3622               	rlcf	___flmul@prod,f,c
  1153  000A60  3623               	rlcf	___flmul@prod+1,f,c
  1154  000A62  3624               	rlcf	___flmul@prod+2,f,c
  1155  000A64  3625               	rlcf	___flmul@prod+3,f,c
  1156  000A66  BE1F               	btfsc	___flmul@grs+3,7,c
  1157  000A68  8022               	bsf	___flmul@prod,0,c
  1158  000A6A  90D8               	bcf	status,0,c
  1159  000A6C  361C               	rlcf	___flmul@grs,f,c
  1160  000A6E  361D               	rlcf	___flmul@grs+1,f,c
  1161  000A70  361E               	rlcf	___flmul@grs+2,f,c
  1162  000A72  361F               	rlcf	___flmul@grs+3,f,c
  1163  000A74  0626               	decf	___flmul@temp,f,c
  1164  000A76  A0D8               	btfss	status,0,c
  1165  000A78  0627               	decf	___flmul@temp+1,f,c
  1166  000A7A                     l6716:
  1167  000A7A  AE24               	btfss	___flmul@prod+2,7,c
  1168  000A7C  D7EF               	goto	l6710
  1169  000A7E  0E00               	movlw	0
  1170  000A80  6E20               	movwf	___flmul@aexp,c
  1171  000A82  AE1F               	btfss	___flmul@grs+3,7,c
  1172  000A84  D017               	goto	l1524
  1173  000A86  0EFF               	movlw	255
  1174  000A88  141C               	andwf	___flmul@grs,w,c
  1175  000A8A  6E17               	movwf	??___flmul& (0+255),c
  1176  000A8C  0EFF               	movlw	255
  1177  000A8E  141D               	andwf	___flmul@grs+1,w,c
  1178  000A90  6E18               	movwf	(??___flmul+1)& (0+255),c
  1179  000A92  0EFF               	movlw	255
  1180  000A94  141E               	andwf	___flmul@grs+2,w,c
  1181  000A96  6E19               	movwf	(??___flmul+2)& (0+255),c
  1182  000A98  0E7F               	movlw	127
  1183  000A9A  141F               	andwf	___flmul@grs+3,w,c
  1184  000A9C  6E1A               	movwf	(??___flmul+3)& (0+255),c
  1185  000A9E  5017               	movf	??___flmul,w,c
  1186  000AA0  1018               	iorwf	??___flmul+1,w,c
  1187  000AA2  1019               	iorwf	??___flmul+2,w,c
  1188  000AA4  101A               	iorwf	??___flmul+3,w,c
  1189  000AA6  B4D8               	btfsc	status,2,c
  1190  000AA8  D003               	goto	l1525
  1191  000AAA                     u9330:
  1192  000AAA  0E01               	movlw	1
  1193  000AAC  6E20               	movwf	___flmul@aexp,c
  1194  000AAE  D002               	goto	l1524
  1195  000AB0                     l1525:
  1196  000AB0  B022               	btfsc	___flmul@prod,0,c
  1197  000AB2  D7FB               	goto	u9330
  1198  000AB4                     l1524:
  1199  000AB4  5020               	movf	___flmul@aexp,w,c
  1200  000AB6  B4D8               	btfsc	status,2,c
  1201  000AB8  D01F               	goto	l6736
  1202  000ABA  0E01               	movlw	1
  1203  000ABC  2622               	addwf	___flmul@prod,f,c
  1204  000ABE  0E00               	movlw	0
  1205  000AC0  2223               	addwfc	___flmul@prod+1,f,c
  1206  000AC2  2224               	addwfc	___flmul@prod+2,f,c
  1207  000AC4  2225               	addwfc	___flmul@prod+3,f,c
  1208  000AC6  A025               	btfss	___flmul@prod+3,0,c
  1209  000AC8  D017               	goto	l6736
  1210  000ACA  C022  F017         	movff	___flmul@prod,??___flmul
  1211  000ACE  C023  F018         	movff	___flmul@prod+1,??___flmul+1
  1212  000AD2  C024  F019         	movff	___flmul@prod+2,??___flmul+2
  1213  000AD6  C025  F01A         	movff	___flmul@prod+3,??___flmul+3
  1214  000ADA  341A               	rlcf	??___flmul+3,w,c
  1215  000ADC  321A               	rrcf	??___flmul+3,f,c
  1216  000ADE  3219               	rrcf	??___flmul+2,f,c
  1217  000AE0  3218               	rrcf	??___flmul+1,f,c
  1218  000AE2  3217               	rrcf	??___flmul,f,c
  1219  000AE4  C017  F022         	movff	??___flmul,___flmul@prod
  1220  000AE8  C018  F023         	movff	??___flmul+1,___flmul@prod+1
  1221  000AEC  C019  F024         	movff	??___flmul+2,___flmul@prod+2
  1222  000AF0  C01A  F025         	movff	??___flmul+3,___flmul@prod+3
  1223  000AF4  4A26               	infsnz	___flmul@temp,f,c
  1224  000AF6  2A27               	incf	___flmul@temp+1,f,c
  1225  000AF8                     l6736:
  1226  000AF8  BE27               	btfsc	___flmul@temp+1,7,c
  1227  000AFA  D00D               	goto	l6740
  1228  000AFC  5027               	movf	___flmul@temp+1,w,c
  1229  000AFE  E103               	bnz	u9370
  1230  000B00  2826               	incf	___flmul@temp,w,c
  1231  000B02  A0D8               	btfss	status,0,c
  1232  000B04  D008               	goto	l6740
  1233  000B06                     u9370:
  1234  000B06  0E00               	movlw	0
  1235  000B08  6E22               	movwf	___flmul@prod,c
  1236  000B0A  0E00               	movlw	0
  1237  000B0C  6E23               	movwf	___flmul@prod+1,c
  1238  000B0E  0E80               	movlw	128
  1239  000B10  6E24               	movwf	___flmul@prod+2,c
  1240  000B12  0E7F               	movlw	127
  1241  000B14  D020               	goto	L1
  1242  000B16                     l6740:
  1243  000B16  BE27               	btfsc	___flmul@temp+1,7,c
  1244  000B18  D005               	goto	u9380
  1245  000B1A  5027               	movf	___flmul@temp+1,w,c
  1246  000B1C  E10E               	bnz	l1532
  1247  000B1E  0426               	decf	___flmul@temp,w,c
  1248  000B20  B0D8               	btfsc	status,0,c
  1249  000B22  D00B               	goto	l1532
  1250  000B24                     u9380:
  1251  000B24  0E00               	movlw	0
  1252  000B26  6E22               	movwf	___flmul@prod,c
  1253  000B28  0E00               	movlw	0
  1254  000B2A  6E23               	movwf	___flmul@prod+1,c
  1255  000B2C  0E00               	movlw	0
  1256  000B2E  6E24               	movwf	___flmul@prod+2,c
  1257  000B30  0E00               	movlw	0
  1258  000B32  6E25               	movwf	___flmul@prod+3,c
  1259  000B34  0E00               	movlw	0
  1260  000B36  6E1B               	movwf	___flmul@sign,c
  1261  000B38  D00F               	goto	l6752
  1262  000B3A                     l1532:
  1263  000B3A  C026  F021         	movff	___flmul@temp,___flmul@bexp
  1264  000B3E  0EFF               	movlw	255
  1265  000B40  1622               	andwf	___flmul@prod,f,c
  1266  000B42  0EFF               	movlw	255
  1267  000B44  1623               	andwf	___flmul@prod+1,f,c
  1268  000B46  0E7F               	movlw	127
  1269  000B48  1624               	andwf	___flmul@prod+2,f,c
  1270  000B4A  0E00               	movlw	0
  1271  000B4C  1625               	andwf	___flmul@prod+3,f,c
  1272  000B4E  B021               	btfsc	___flmul@bexp,0,c
  1273  000B50  8E24               	bsf	___flmul@prod+2,7,c
  1274  000B52  90D8               	bcf	status,0,c
  1275  000B54  3021               	rrcf	___flmul@bexp,w,c
  1276  000B56                     L1:
  1277  000B56  6E25               	movwf	___flmul@prod+3,c
  1278  000B58                     l6752:
  1279  000B58  501B               	movf	___flmul@sign,w,c
  1280  000B5A  1225               	iorwf	___flmul@prod+3,f,c
  1281  000B5C  C022  F00F         	movff	___flmul@prod,?___flmul
  1282  000B60  C023  F010         	movff	___flmul@prod+1,?___flmul+1
  1283  000B64  C024  F011         	movff	___flmul@prod+2,?___flmul+2
  1284  000B68  C025  F012         	movff	___flmul@prod+3,?___flmul+3
  1285  000B6C  0012               	return		;funcret
  1286  000B6E                     __end_of___flmul:
  1287                           	opt callstack 0
  1288                           
  1289 ;; *************** function ___fldiv *****************
  1290 ;; Defined at:
  1291 ;;		line 11 in file "C:\Program Files (x86)\Microchip\xc8\v2.05\pic\sources\c99\common\sprcdiv.c"
  1292 ;; Parameters:    Size  Location     Type
  1293 ;;  b               4   39[COMRAM] unsigned char 
  1294 ;;  a               4   43[COMRAM] unsigned char 
  1295 ;; Auto vars:     Size  Location     Type
  1296 ;;  grs             4   58[COMRAM] unsigned long 
  1297 ;;  rem             4   51[COMRAM] unsigned long 
  1298 ;;  new_exp         2   56[COMRAM] short 
  1299 ;;  aexp            1   63[COMRAM] unsigned char 
  1300 ;;  bexp            1   62[COMRAM] unsigned char 
  1301 ;;  sign            1   55[COMRAM] unsigned char 
  1302 ;; Return value:  Size  Location     Type
  1303 ;;                  4   39[COMRAM] unsigned char 
  1304 ;; Registers used:
  1305 ;;		wreg, status,2, status,0
  1306 ;; Tracked objects:
  1307 ;;		On entry : 0/0
  1308 ;;		On exit  : 0/0
  1309 ;;		Unchanged: 0/0
  1310 ;; Data sizes:     COMRAM   BANK0   BANK1   BANK2   BANK3   BANK4   BANK5   BANK6   BANK7
  1311 ;;      Params:         8       0       0       0       0       0       0       0       0
  1312 ;;      Locals:        13       0       0       0       0       0       0       0       0
  1313 ;;      Temps:          4       0       0       0       0       0       0       0       0
  1314 ;;      Totals:        25       0       0       0       0       0       0       0       0
  1315 ;;Total ram usage:       25 bytes
  1316 ;; Hardware stack levels used:    1
  1317 ;; This function calls:
  1318 ;;		Nothing
  1319 ;; This function is called by:
  1320 ;;		_main
  1321 ;; This function uses a non-reentrant model
  1322 ;;
  1323                           
  1324                           	psect	text4
  1325  000B6E                     __ptext4:
  1326                           	opt callstack 0
  1327  000B6E                     ___fldiv:
  1328                           	opt callstack 30
  1329                           
  1330                           ;incstack = 0
  1331  000B6E  502B               	movf	___fldiv@b+3,w,c
  1332  000B70  0B80               	andlw	128
  1333  000B72  6E38               	movwf	___fldiv@sign,c
  1334  000B74  502B               	movf	___fldiv@b+3,w,c
  1335  000B76  242B               	addwf	___fldiv@b+3,w,c
  1336  000B78  6E3F               	movwf	___fldiv@bexp,c
  1337  000B7A  BE2A               	btfsc	___fldiv@b+2,7,c
  1338  000B7C  803F               	bsf	___fldiv@bexp,0,c
  1339  000B7E  503F               	movf	___fldiv@bexp,w,c
  1340  000B80  B4D8               	btfsc	status,2,c
  1341  000B82  D00D               	goto	l6506
  1342  000B84  283F               	incf	___fldiv@bexp,w,c
  1343  000B86  A4D8               	btfss	status,2,c
  1344  000B88  D008               	goto	l6502
  1345  000B8A  0E00               	movlw	0
  1346  000B8C  6E28               	movwf	___fldiv@b,c
  1347  000B8E  0E00               	movlw	0
  1348  000B90  6E29               	movwf	___fldiv@b+1,c
  1349  000B92  0E00               	movlw	0
  1350  000B94  6E2A               	movwf	___fldiv@b+2,c
  1351  000B96  0E00               	movlw	0
  1352  000B98  6E2B               	movwf	___fldiv@b+3,c
  1353  000B9A                     l6502:
  1354  000B9A  8E2A               	bsf	___fldiv@b+2,7,c
  1355  000B9C  D006               	goto	L2
  1356  000B9E                     l6506:
  1357  000B9E  0E00               	movlw	0
  1358  000BA0  6E28               	movwf	___fldiv@b,c
  1359  000BA2  0E00               	movlw	0
  1360  000BA4  6E29               	movwf	___fldiv@b+1,c
  1361  000BA6  0E00               	movlw	0
  1362  000BA8  6E2A               	movwf	___fldiv@b+2,c
  1363  000BAA                     L2:
  1364  000BAA  0E00               	movlw	0
  1365  000BAC  6E2B               	movwf	___fldiv@b+3,c
  1366  000BAE  502F               	movf	___fldiv@a+3,w,c
  1367  000BB0  0B80               	andlw	128
  1368  000BB2  1A38               	xorwf	___fldiv@sign,f,c
  1369  000BB4  502F               	movf	___fldiv@a+3,w,c
  1370  000BB6  242F               	addwf	___fldiv@a+3,w,c
  1371  000BB8  6E40               	movwf	___fldiv@aexp,c
  1372  000BBA  BE2E               	btfsc	___fldiv@a+2,7,c
  1373  000BBC  8040               	bsf	___fldiv@aexp,0,c
  1374  000BBE  5040               	movf	___fldiv@aexp,w,c
  1375  000BC0  B4D8               	btfsc	status,2,c
  1376  000BC2  D00D               	goto	l6526
  1377  000BC4  2840               	incf	___fldiv@aexp,w,c
  1378  000BC6  A4D8               	btfss	status,2,c
  1379  000BC8  D008               	goto	l6522
  1380  000BCA  0E00               	movlw	0
  1381  000BCC  6E2C               	movwf	___fldiv@a,c
  1382  000BCE  0E00               	movlw	0
  1383  000BD0  6E2D               	movwf	___fldiv@a+1,c
  1384  000BD2  0E00               	movlw	0
  1385  000BD4  6E2E               	movwf	___fldiv@a+2,c
  1386  000BD6  0E00               	movlw	0
  1387  000BD8  6E2F               	movwf	___fldiv@a+3,c
  1388  000BDA                     l6522:
  1389  000BDA  8E2E               	bsf	___fldiv@a+2,7,c
  1390  000BDC  D006               	goto	L3
  1391  000BDE                     l6526:
  1392  000BDE  0E00               	movlw	0
  1393  000BE0  6E2C               	movwf	___fldiv@a,c
  1394  000BE2  0E00               	movlw	0
  1395  000BE4  6E2D               	movwf	___fldiv@a+1,c
  1396  000BE6  0E00               	movlw	0
  1397  000BE8  6E2E               	movwf	___fldiv@a+2,c
  1398  000BEA                     L3:
  1399  000BEA  0E00               	movlw	0
  1400  000BEC  6E2F               	movwf	___fldiv@a+3,c
  1401  000BEE  502C               	movf	___fldiv@a,w,c
  1402  000BF0  102D               	iorwf	___fldiv@a+1,w,c
  1403  000BF2  102E               	iorwf	___fldiv@a+2,w,c
  1404  000BF4  102F               	iorwf	___fldiv@a+3,w,c
  1405  000BF6  A4D8               	btfss	status,2,c
  1406  000BF8  D017               	goto	l6540
  1407  000BFA  0E00               	movlw	0
  1408  000BFC  6E28               	movwf	___fldiv@b,c
  1409  000BFE  0E00               	movlw	0
  1410  000C00  6E29               	movwf	___fldiv@b+1,c
  1411  000C02  0E00               	movlw	0
  1412  000C04  6E2A               	movwf	___fldiv@b+2,c
  1413  000C06  0E00               	movlw	0
  1414  000C08  6E2B               	movwf	___fldiv@b+3,c
  1415  000C0A  0E80               	movlw	128
  1416  000C0C  122A               	iorwf	___fldiv@b+2,f,c
  1417  000C0E  0E7F               	movlw	127
  1418  000C10  122B               	iorwf	___fldiv@b+3,f,c
  1419  000C12                     l6534:
  1420  000C12  5038               	movf	___fldiv@sign,w,c
  1421  000C14  122B               	iorwf	___fldiv@b+3,f,c
  1422  000C16  C028  F028         	movff	___fldiv@b,?___fldiv
  1423  000C1A  C029  F029         	movff	___fldiv@b+1,?___fldiv+1
  1424  000C1E  C02A  F02A         	movff	___fldiv@b+2,?___fldiv+2
  1425  000C22  C02B  F02B         	movff	___fldiv@b+3,?___fldiv+3
  1426  000C26  0012               	return	
  1427  000C28                     l6540:
  1428  000C28  503F               	movf	___fldiv@bexp,w,c
  1429  000C2A  A4D8               	btfss	status,2,c
  1430  000C2C  D009               	goto	l6548
  1431  000C2E  0E00               	movlw	0
  1432  000C30  6E28               	movwf	?___fldiv,c
  1433  000C32  0E00               	movlw	0
  1434  000C34  6E29               	movwf	?___fldiv+1,c
  1435  000C36  0E00               	movlw	0
  1436  000C38  6E2A               	movwf	?___fldiv+2,c
  1437  000C3A  0E00               	movlw	0
  1438  000C3C  6E2B               	movwf	?___fldiv+3,c
  1439  000C3E  0012               	return	
  1440  000C40                     l6548:
  1441  000C40  5040               	movf	___fldiv@aexp,w,c
  1442  000C42  C03F  F030         	movff	___fldiv@bexp,??___fldiv
  1443  000C46  6A31               	clrf	(??___fldiv+1)& (0+255),c
  1444  000C48  5E30               	subwf	??___fldiv,f,c
  1445  000C4A  0E00               	movlw	0
  1446  000C4C  5A31               	subwfb	??___fldiv+1,f,c
  1447  000C4E  0E7F               	movlw	127
  1448  000C50  2430               	addwf	??___fldiv,w,c
  1449  000C52  6E39               	movwf	___fldiv@new_exp,c
  1450  000C54  0E00               	movlw	0
  1451  000C56  2031               	addwfc	??___fldiv+1,w,c
  1452  000C58  6E3A               	movwf	___fldiv@new_exp+1,c
  1453  000C5A  C028  F034         	movff	___fldiv@b,___fldiv@rem
  1454  000C5E  C029  F035         	movff	___fldiv@b+1,___fldiv@rem+1
  1455  000C62  C02A  F036         	movff	___fldiv@b+2,___fldiv@rem+2
  1456  000C66  C02B  F037         	movff	___fldiv@b+3,___fldiv@rem+3
  1457  000C6A  0E00               	movlw	0
  1458  000C6C  6E28               	movwf	___fldiv@b,c
  1459  000C6E  0E00               	movlw	0
  1460  000C70  6E29               	movwf	___fldiv@b+1,c
  1461  000C72  0E00               	movlw	0
  1462  000C74  6E2A               	movwf	___fldiv@b+2,c
  1463  000C76  0E00               	movlw	0
  1464  000C78  6E2B               	movwf	___fldiv@b+3,c
  1465  000C7A  0E00               	movlw	0
  1466  000C7C  6E3B               	movwf	___fldiv@grs,c
  1467  000C7E  0E00               	movlw	0
  1468  000C80  6E3C               	movwf	___fldiv@grs+1,c
  1469  000C82  0E00               	movlw	0
  1470  000C84  6E3D               	movwf	___fldiv@grs+2,c
  1471  000C86  0E00               	movlw	0
  1472  000C88  6E3E               	movwf	___fldiv@grs+3,c
  1473  000C8A  0E00               	movlw	0
  1474  000C8C  6E40               	movwf	___fldiv@aexp,c
  1475  000C8E  D028               	goto	l1485
  1476  000C90                     l6558:
  1477  000C90  5040               	movf	___fldiv@aexp,w,c
  1478  000C92  B4D8               	btfsc	status,2,c
  1479  000C94  D011               	goto	l6566
  1480  000C96  90D8               	bcf	status,0,c
  1481  000C98  3634               	rlcf	___fldiv@rem,f,c
  1482  000C9A  3635               	rlcf	___fldiv@rem+1,f,c
  1483  000C9C  3636               	rlcf	___fldiv@rem+2,f,c
  1484  000C9E  3637               	rlcf	___fldiv@rem+3,f,c
  1485  000CA0  90D8               	bcf	status,0,c
  1486  000CA2  3628               	rlcf	___fldiv@b,f,c
  1487  000CA4  3629               	rlcf	___fldiv@b+1,f,c
  1488  000CA6  362A               	rlcf	___fldiv@b+2,f,c
  1489  000CA8  362B               	rlcf	___fldiv@b+3,f,c
  1490  000CAA  BE3E               	btfsc	___fldiv@grs+3,7,c
  1491  000CAC  8028               	bsf	___fldiv@b,0,c
  1492  000CAE  90D8               	bcf	status,0,c
  1493  000CB0  363B               	rlcf	___fldiv@grs,f,c
  1494  000CB2  363C               	rlcf	___fldiv@grs+1,f,c
  1495  000CB4  363D               	rlcf	___fldiv@grs+2,f,c
  1496  000CB6  363E               	rlcf	___fldiv@grs+3,f,c
  1497  000CB8                     l6566:
  1498  000CB8  502C               	movf	___fldiv@a,w,c
  1499  000CBA  5C34               	subwf	___fldiv@rem,w,c
  1500  000CBC  502D               	movf	___fldiv@a+1,w,c
  1501  000CBE  5835               	subwfb	___fldiv@rem+1,w,c
  1502  000CC0  502E               	movf	___fldiv@a+2,w,c
  1503  000CC2  5836               	subwfb	___fldiv@rem+2,w,c
  1504  000CC4  502F               	movf	___fldiv@a+3,w,c
  1505  000CC6  5837               	subwfb	___fldiv@rem+3,w,c
  1506  000CC8  A0D8               	btfss	status,0,c
  1507  000CCA  D009               	goto	l6572
  1508  000CCC  8C3E               	bsf	___fldiv@grs+3,6,c
  1509  000CCE  502C               	movf	___fldiv@a,w,c
  1510  000CD0  5E34               	subwf	___fldiv@rem,f,c
  1511  000CD2  502D               	movf	___fldiv@a+1,w,c
  1512  000CD4  5A35               	subwfb	___fldiv@rem+1,f,c
  1513  000CD6  502E               	movf	___fldiv@a+2,w,c
  1514  000CD8  5A36               	subwfb	___fldiv@rem+2,f,c
  1515  000CDA  502F               	movf	___fldiv@a+3,w,c
  1516  000CDC  5A37               	subwfb	___fldiv@rem+3,f,c
  1517  000CDE                     l6572:
  1518  000CDE  2A40               	incf	___fldiv@aexp,f,c
  1519  000CE0                     l1485:
  1520  000CE0  0E19               	movlw	25
  1521  000CE2  6440               	cpfsgt	___fldiv@aexp,c
  1522  000CE4  D7D5               	goto	l6558
  1523  000CE6  5034               	movf	___fldiv@rem,w,c
  1524  000CE8  1035               	iorwf	___fldiv@rem+1,w,c
  1525  000CEA  1036               	iorwf	___fldiv@rem+2,w,c
  1526  000CEC  1037               	iorwf	___fldiv@rem+3,w,c
  1527  000CEE  B4D8               	btfsc	status,2,c
  1528  000CF0  D011               	goto	l6584
  1529  000CF2  803B               	bsf	___fldiv@grs,0,c
  1530  000CF4  D00F               	goto	l6584
  1531  000CF6                     l6578:
  1532  000CF6  90D8               	bcf	status,0,c
  1533  000CF8  3628               	rlcf	___fldiv@b,f,c
  1534  000CFA  3629               	rlcf	___fldiv@b+1,f,c
  1535  000CFC  362A               	rlcf	___fldiv@b+2,f,c
  1536  000CFE  362B               	rlcf	___fldiv@b+3,f,c
  1537  000D00  BE3E               	btfsc	___fldiv@grs+3,7,c
  1538  000D02  8028               	bsf	___fldiv@b,0,c
  1539  000D04  90D8               	bcf	status,0,c
  1540  000D06  363B               	rlcf	___fldiv@grs,f,c
  1541  000D08  363C               	rlcf	___fldiv@grs+1,f,c
  1542  000D0A  363D               	rlcf	___fldiv@grs+2,f,c
  1543  000D0C  363E               	rlcf	___fldiv@grs+3,f,c
  1544  000D0E  0639               	decf	___fldiv@new_exp,f,c
  1545  000D10  A0D8               	btfss	status,0,c
  1546  000D12  063A               	decf	___fldiv@new_exp+1,f,c
  1547  000D14                     l6584:
  1548  000D14  AE2A               	btfss	___fldiv@b+2,7,c
  1549  000D16  D7EF               	goto	l6578
  1550  000D18  0E00               	movlw	0
  1551  000D1A  6E40               	movwf	___fldiv@aexp,c
  1552  000D1C  AE3E               	btfss	___fldiv@grs+3,7,c
  1553  000D1E  D017               	goto	l1496
  1554  000D20  0EFF               	movlw	255
  1555  000D22  143B               	andwf	___fldiv@grs,w,c
  1556  000D24  6E30               	movwf	??___fldiv& (0+255),c
  1557  000D26  0EFF               	movlw	255
  1558  000D28  143C               	andwf	___fldiv@grs+1,w,c
  1559  000D2A  6E31               	movwf	(??___fldiv+1)& (0+255),c
  1560  000D2C  0EFF               	movlw	255
  1561  000D2E  143D               	andwf	___fldiv@grs+2,w,c
  1562  000D30  6E32               	movwf	(??___fldiv+2)& (0+255),c
  1563  000D32  0E7F               	movlw	127
  1564  000D34  143E               	andwf	___fldiv@grs+3,w,c
  1565  000D36  6E33               	movwf	(??___fldiv+3)& (0+255),c
  1566  000D38  5030               	movf	??___fldiv,w,c
  1567  000D3A  1031               	iorwf	??___fldiv+1,w,c
  1568  000D3C  1032               	iorwf	??___fldiv+2,w,c
  1569  000D3E  1033               	iorwf	??___fldiv+3,w,c
  1570  000D40  B4D8               	btfsc	status,2,c
  1571  000D42  D003               	goto	l1497
  1572  000D44                     u9140:
  1573  000D44  0E01               	movlw	1
  1574  000D46  6E40               	movwf	___fldiv@aexp,c
  1575  000D48  D002               	goto	l1496
  1576  000D4A                     l1497:
  1577  000D4A  B028               	btfsc	___fldiv@b,0,c
  1578  000D4C  D7FB               	goto	u9140
  1579  000D4E                     l1496:
  1580  000D4E  5040               	movf	___fldiv@aexp,w,c
  1581  000D50  B4D8               	btfsc	status,2,c
  1582  000D52  D01F               	goto	l6604
  1583  000D54  0E01               	movlw	1
  1584  000D56  2628               	addwf	___fldiv@b,f,c
  1585  000D58  0E00               	movlw	0
  1586  000D5A  2229               	addwfc	___fldiv@b+1,f,c
  1587  000D5C  222A               	addwfc	___fldiv@b+2,f,c
  1588  000D5E  222B               	addwfc	___fldiv@b+3,f,c
  1589  000D60  A02B               	btfss	___fldiv@b+3,0,c
  1590  000D62  D017               	goto	l6604
  1591  000D64  C028  F030         	movff	___fldiv@b,??___fldiv
  1592  000D68  C029  F031         	movff	___fldiv@b+1,??___fldiv+1
  1593  000D6C  C02A  F032         	movff	___fldiv@b+2,??___fldiv+2
  1594  000D70  C02B  F033         	movff	___fldiv@b+3,??___fldiv+3
  1595  000D74  3433               	rlcf	??___fldiv+3,w,c
  1596  000D76  3233               	rrcf	??___fldiv+3,f,c
  1597  000D78  3232               	rrcf	??___fldiv+2,f,c
  1598  000D7A  3231               	rrcf	??___fldiv+1,f,c
  1599  000D7C  3230               	rrcf	??___fldiv,f,c
  1600  000D7E  C030  F028         	movff	??___fldiv,___fldiv@b
  1601  000D82  C031  F029         	movff	??___fldiv+1,___fldiv@b+1
  1602  000D86  C032  F02A         	movff	??___fldiv+2,___fldiv@b+2
  1603  000D8A  C033  F02B         	movff	??___fldiv+3,___fldiv@b+3
  1604  000D8E  4A39               	infsnz	___fldiv@new_exp,f,c
  1605  000D90  2A3A               	incf	___fldiv@new_exp+1,f,c
  1606  000D92                     l6604:
  1607  000D92  BE3A               	btfsc	___fldiv@new_exp+1,7,c
  1608  000D94  D010               	goto	l6608
  1609  000D96  503A               	movf	___fldiv@new_exp+1,w,c
  1610  000D98  E103               	bnz	u9180
  1611  000D9A  2839               	incf	___fldiv@new_exp,w,c
  1612  000D9C  A0D8               	btfss	status,0,c
  1613  000D9E  D00B               	goto	l6608
  1614  000DA0                     u9180:
  1615  000DA0  0E00               	movlw	0
  1616  000DA2  6E3A               	movwf	___fldiv@new_exp+1,c
  1617  000DA4  6839               	setf	___fldiv@new_exp,c
  1618  000DA6  0E00               	movlw	0
  1619  000DA8  6E28               	movwf	___fldiv@b,c
  1620  000DAA  0E00               	movlw	0
  1621  000DAC  6E29               	movwf	___fldiv@b+1,c
  1622  000DAE  0E00               	movlw	0
  1623  000DB0  6E2A               	movwf	___fldiv@b+2,c
  1624  000DB2  0E00               	movlw	0
  1625  000DB4  6E2B               	movwf	___fldiv@b+3,c
  1626  000DB6                     l6608:
  1627  000DB6  BE3A               	btfsc	___fldiv@new_exp+1,7,c
  1628  000DB8  D005               	goto	u9190
  1629  000DBA  503A               	movf	___fldiv@new_exp+1,w,c
  1630  000DBC  E111               	bnz	l6612
  1631  000DBE  0439               	decf	___fldiv@new_exp,w,c
  1632  000DC0  B0D8               	btfsc	status,0,c
  1633  000DC2  D00E               	goto	l6612
  1634  000DC4                     u9190:
  1635  000DC4  0E00               	movlw	0
  1636  000DC6  6E3A               	movwf	___fldiv@new_exp+1,c
  1637  000DC8  0E00               	movlw	0
  1638  000DCA  6E39               	movwf	___fldiv@new_exp,c
  1639  000DCC  0E00               	movlw	0
  1640  000DCE  6E28               	movwf	___fldiv@b,c
  1641  000DD0  0E00               	movlw	0
  1642  000DD2  6E29               	movwf	___fldiv@b+1,c
  1643  000DD4  0E00               	movlw	0
  1644  000DD6  6E2A               	movwf	___fldiv@b+2,c
  1645  000DD8  0E00               	movlw	0
  1646  000DDA  6E2B               	movwf	___fldiv@b+3,c
  1647  000DDC  0E00               	movlw	0
  1648  000DDE  6E38               	movwf	___fldiv@sign,c
  1649  000DE0                     l6612:
  1650  000DE0  C039  F03F         	movff	___fldiv@new_exp,___fldiv@bexp
  1651  000DE4  A03F               	btfss	___fldiv@bexp,0,c
  1652  000DE6  D002               	goto	l6618
  1653  000DE8  8E2A               	bsf	___fldiv@b+2,7,c
  1654  000DEA  D001               	goto	l6620
  1655  000DEC                     l6618:
  1656  000DEC  9E2A               	bcf	___fldiv@b+2,7,c
  1657  000DEE                     l6620:
  1658  000DEE  90D8               	bcf	status,0,c
  1659  000DF0  303F               	rrcf	___fldiv@bexp,w,c
  1660  000DF2  6E2B               	movwf	___fldiv@b+3,c
  1661  000DF4  D70E               	goto	l6534
  1662  000DF6                     __end_of___fldiv:
  1663                           	opt callstack 0
  1664                           
  1665 ;; *************** function _Init8LEDs *****************
  1666 ;; Defined at:
  1667 ;;		line 72 in file "Main.c"
  1668 ;; Parameters:    Size  Location     Type
  1669 ;;		None
  1670 ;; Auto vars:     Size  Location     Type
  1671 ;;		None
  1672 ;; Return value:  Size  Location     Type
  1673 ;;                  1    wreg      void 
  1674 ;; Registers used:
  1675 ;;		wreg, status,2
  1676 ;; Tracked objects:
  1677 ;;		On entry : 0/0
  1678 ;;		On exit  : 0/0
  1679 ;;		Unchanged: 0/0
  1680 ;; Data sizes:     COMRAM   BANK0   BANK1   BANK2   BANK3   BANK4   BANK5   BANK6   BANK7
  1681 ;;      Params:         0       0       0       0       0       0       0       0       0
  1682 ;;      Locals:         0       0       0       0       0       0       0       0       0
  1683 ;;      Temps:          0       0       0       0       0       0       0       0       0
  1684 ;;      Totals:         0       0       0       0       0       0       0       0       0
  1685 ;;Total ram usage:        0 bytes
  1686 ;; Hardware stack levels used:    1
  1687 ;; This function calls:
  1688 ;;		Nothing
  1689 ;; This function is called by:
  1690 ;;		_main
  1691 ;; This function uses a non-reentrant model
  1692 ;;
  1693                           
  1694                           	psect	text5
  1695  001094                     __ptext5:
  1696                           	opt callstack 0
  1697  001094                     _Init8LEDs:
  1698                           	opt callstack 30
  1699                           
  1700                           ;Main.c: 74:     LATA = 0x00;
  1701                           
  1702                           ;incstack = 0
  1703  001094  0E00               	movlw	0
  1704  001096  6E89               	movwf	3977,c	;volatile
  1705                           
  1706                           ;Main.c: 75:     TRISA = 0x00;
  1707  001098  0E00               	movlw	0
  1708  00109A  6E92               	movwf	3986,c	;volatile
  1709                           
  1710                           ;Main.c: 76:     ANSELA = 0x00;
  1711  00109C  0E00               	movlw	0
  1712  00109E  010F               	movlb	15	; () banked
  1713  0010A0  6F5B               	movwf	91,b	;volatile
  1714                           
  1715                           ; BSR set to: 15
  1716  0010A2  0012               	return		;funcret
  1717  0010A4                     __end_of_Init8LEDs:
  1718                           	opt callstack 0
  1719                           
  1720                           	psect	rparam
  1721  0000                     tosu	equ	0xFFF
  1722                           tosh	equ	0xFFE
  1723                           tosl	equ	0xFFD
  1724                           stkptr	equ	0xFFC
  1725                           pclatu	equ	0xFFB
  1726                           pclath	equ	0xFFA
  1727                           pcl	equ	0xFF9
  1728                           tblptru	equ	0xFF8
  1729                           tblptrh	equ	0xFF7
  1730                           tblptrl	equ	0xFF6
  1731                           tablat	equ	0xFF5
  1732                           prodh	equ	0xFF4
  1733                           prodl	equ	0xFF3
  1734                           indf0	equ	0xFEF
  1735                           postinc0	equ	0xFEE
  1736                           postdec0	equ	0xFED
  1737                           preinc0	equ	0xFEC
  1738                           plusw0	equ	0xFEB
  1739                           fsr0h	equ	0xFEA
  1740                           fsr0l	equ	0xFE9
  1741                           wreg	equ	0xFE8
  1742                           indf1	equ	0xFE7
  1743                           postinc1	equ	0xFE6
  1744                           postdec1	equ	0xFE5
  1745                           preinc1	equ	0xFE4
  1746                           plusw1	equ	0xFE3
  1747                           fsr1h	equ	0xFE2
  1748                           fsr1l	equ	0xFE1
  1749                           bsr	equ	0xFE0
  1750                           indf2	equ	0xFDF
  1751                           postinc2	equ	0xFDE
  1752                           postdec2	equ	0xFDD
  1753                           preinc2	equ	0xFDC
  1754                           plusw2	equ	0xFDB
  1755                           fsr2h	equ	0xFDA
  1756                           fsr2l	equ	0xFD9
  1757                           status	equ	0xFD8


Data Sizes:
    Strings     26
    Constant    0
    Data        11
    BSS         596
    Persistent  6
    Stack       0

Auto Spaces:
    Space          Size  Autos    Used
    COMRAM           95     68      91
    BANK0           160      0      32
    BANK1           256      0       0
    BANK2           256      0       0
    BANK3           256      0       0
    BANK4           256      0       0
    BANK5           256      0       0
    BANK6           256      0       0
    BANK7           256      0       0

Pointer List with Targets:

    Fil.dir_ptr	PTR unsigned char  size(2) Largest target is 558
		 -> FatFs(BIGRAM[558]), NULL(NULL[0]), 

    Fil.fs	PTR struct . size(2) Largest target is 558
		 -> FatFs(BIGRAM[558]), NULL(NULL[0]), 

    f_lseek@fp.dir_ptr	PTR unsigned char  size(2) Largest target is 558
		 -> FatFs(BIGRAM[558]), NULL(NULL[0]), 

    f_lseek@fp.fs	PTR struct . size(2) Largest target is 558
		 -> FatFs(BIGRAM[558]), NULL(NULL[0]), 

    f_close@fp.dir_ptr	PTR unsigned char  size(2) Largest target is 558
		 -> FatFs(BIGRAM[558]), NULL(NULL[0]), 

    f_close@fp.fs	PTR struct . size(2) Largest target is 558
		 -> FatFs(BIGRAM[558]), NULL(NULL[0]), 

    f_sync@fp.dir_ptr	PTR unsigned char  size(2) Largest target is 558
		 -> FatFs(BIGRAM[558]), NULL(NULL[0]), 

    f_sync@fp.fs	PTR struct . size(2) Largest target is 558
		 -> FatFs(BIGRAM[558]), NULL(NULL[0]), 

    f_write@fp.dir_ptr	PTR unsigned char  size(2) Largest target is 558
		 -> FatFs(BIGRAM[558]), NULL(NULL[0]), 

    f_write@fp.fs	PTR struct . size(2) Largest target is 558
		 -> FatFs(BIGRAM[558]), NULL(NULL[0]), 

    f_read@fp.dir_ptr	PTR unsigned char  size(2) Largest target is 558
		 -> FatFs(BIGRAM[558]), NULL(NULL[0]), 

    f_read@fp.fs	PTR struct . size(2) Largest target is 558
		 -> FatFs(BIGRAM[558]), NULL(NULL[0]), 

    f_open@fp.dir_ptr	PTR unsigned char  size(2) Largest target is 558
		 -> FatFs(BIGRAM[558]), NULL(NULL[0]), 

    f_open@fp.fs	PTR struct . size(2) Largest target is 558
		 -> FatFs(BIGRAM[558]), NULL(NULL[0]), 

    dj.fn	PTR unsigned char  size(2) Largest target is 12
		 -> f_open@sfn(COMRAM[12]), 

    dj.dir	PTR unsigned char  size(2) Largest target is 558
		 -> FatFs(BIGRAM[558]), NULL(NULL[0]), 

    dj.fs	PTR struct . size(2) Largest target is 558
		 -> FatFs(BIGRAM[558]), NULL(NULL[0]), 

    S221$dir_ptr	PTR unsigned char  size(2) Largest target is 558
		 -> FatFs(BIGRAM[558]), NULL(NULL[0]), 

    validate@fil.dir_ptr	PTR unsigned char  size(2) Largest target is 558
		 -> FatFs(BIGRAM[558]), NULL(NULL[0]), 

    S221$fs	PTR struct . size(2) Largest target is 558
		 -> FatFs(BIGRAM[558]), NULL(NULL[0]), 

    validate@fil.fs	PTR struct . size(2) Largest target is 558
		 -> FatFs(BIGRAM[558]), NULL(NULL[0]), 

    ff@FatFs	PTR struct .[1] size(2) Largest target is 558
		 -> FatFs(BIGRAM[558]), NULL(NULL[0]), 

    follow_path@dp.fn	PTR unsigned char  size(2) Largest target is 12
		 -> f_open@sfn(COMRAM[12]), 

    follow_path@dp.dir	PTR unsigned char  size(2) Largest target is 558
		 -> FatFs(BIGRAM[558]), NULL(NULL[0]), 

    follow_path@dp.fs	PTR struct . size(2) Largest target is 558
		 -> FatFs(BIGRAM[558]), NULL(NULL[0]), 

    create_name@dp.fn	PTR unsigned char  size(2) Largest target is 12
		 -> f_open@sfn(COMRAM[12]), 

    create_name@dp.dir	PTR unsigned char  size(2) Largest target is 558
		 -> FatFs(BIGRAM[558]), NULL(NULL[0]), 

    create_name@dp.fs	PTR struct . size(2) Largest target is 558
		 -> FatFs(BIGRAM[558]), NULL(NULL[0]), 

    dir_register@dp.fn	PTR unsigned char  size(2) Largest target is 12
		 -> f_open@sfn(COMRAM[12]), 

    dir_register@dp.dir	PTR unsigned char  size(2) Largest target is 558
		 -> FatFs(BIGRAM[558]), NULL(NULL[0]), 

    dir_register@dp.fs	PTR struct . size(2) Largest target is 558
		 -> FatFs(BIGRAM[558]), NULL(NULL[0]), 

    dir_find@dp.fn	PTR unsigned char  size(2) Largest target is 12
		 -> f_open@sfn(COMRAM[12]), 

    dir_find@dp.dir	PTR unsigned char  size(2) Largest target is 558
		 -> FatFs(BIGRAM[558]), NULL(NULL[0]), 

    dir_find@dp.fs	PTR struct . size(2) Largest target is 558
		 -> FatFs(BIGRAM[558]), NULL(NULL[0]), 

    dir_alloc@dp.fn	PTR unsigned char  size(2) Largest target is 12
		 -> f_open@sfn(COMRAM[12]), 

    dir_alloc@dp.dir	PTR unsigned char  size(2) Largest target is 558
		 -> FatFs(BIGRAM[558]), NULL(NULL[0]), 

    dir_alloc@dp.fs	PTR struct . size(2) Largest target is 558
		 -> FatFs(BIGRAM[558]), NULL(NULL[0]), 

    dir_next@dp.fn	PTR unsigned char  size(2) Largest target is 12
		 -> f_open@sfn(COMRAM[12]), 

    dir_next@dp.dir	PTR unsigned char  size(2) Largest target is 558
		 -> FatFs(BIGRAM[558]), NULL(NULL[0]), 

    dir_next@dp.fs	PTR struct . size(2) Largest target is 558
		 -> FatFs(BIGRAM[558]), NULL(NULL[0]), 

    S210$fn	PTR unsigned char  size(2) Largest target is 12
		 -> f_open@sfn(COMRAM[12]), 

    dir_sdi@dp.fn	PTR unsigned char  size(2) Largest target is 12
		 -> f_open@sfn(COMRAM[12]), 

    S210$dir	PTR unsigned char  size(2) Largest target is 558
		 -> FatFs(BIGRAM[558]), NULL(NULL[0]), 

    dir_sdi@dp.dir	PTR unsigned char  size(2) Largest target is 558
		 -> FatFs(BIGRAM[558]), NULL(NULL[0]), 

    S210$fs	PTR struct . size(2) Largest target is 558
		 -> FatFs(BIGRAM[558]), NULL(NULL[0]), 

    dir_sdi@dp.fs	PTR struct . size(2) Largest target is 558
		 -> FatFs(BIGRAM[558]), NULL(NULL[0]), 


Critical Paths under _main in COMRAM

    _main->___fldiv
    ___flmul->___xxtofl
    ___fldiv->___flmul

Critical Paths under _main in BANK0

    None.

Critical Paths under _main in BANK1

    None.

Critical Paths under _main in BANK2

    None.

Critical Paths under _main in BANK3

    None.

Critical Paths under _main in BANK4

    None.

Critical Paths under _main in BANK5

    None.

Critical Paths under _main in BANK6

    None.

Critical Paths under _main in BANK7

    None.

Call Graph Tables:

 ---------------------------------------------------------------------------------
 (Depth) Function   	        Calls       Base Space   Used Autos Params    Refs
 ---------------------------------------------------------------------------------
 (0) _main                                                 6     6      0    3641
                                             64 COMRAM     4     4      0
                          _Init8LEDs
                            ___fldiv
                            ___flmul
                           ___xxtofl
                       _interruptadc
 ---------------------------------------------------------------------------------
 (1) _interruptadc                                         4     2      2      99
                                              0 COMRAM     4     2      2
 ---------------------------------------------------------------------------------
 (1) ___xxtofl                                            14    10      4     398
                                              0 COMRAM    14    10      4
 ---------------------------------------------------------------------------------
 (1) ___flmul                                             25    17      8    1744
                                             14 COMRAM    25    17      8
                           ___xxtofl (ARG)
 ---------------------------------------------------------------------------------
 (1) ___fldiv                                             25    17      8    1399
                                             39 COMRAM    25    17      8
                            ___flmul (ARG)
                           ___xxtofl (ARG)
 ---------------------------------------------------------------------------------
 (1) _Init8LEDs                                            0     0      0       0
 ---------------------------------------------------------------------------------
 Estimated maximum stack depth 1
 ---------------------------------------------------------------------------------

 Call Graph Graphs:

 _main (ROOT)
   _Init8LEDs
   ___fldiv
     ___flmul (ARG)
       ___xxtofl (ARG)
     ___xxtofl (ARG)
   ___flmul
     ___xxtofl (ARG)
   ___xxtofl
   _interruptadc

 Address spaces:
Name               Size   Autos  Total    Cost      Usage
BIGRAM             7FF      0     22E      21       27.3%
EEDATA             100      0       0       0        0.0%
BITBANK7           100      0       0      19        0.0%
BANK7              100      0       0      20        0.0%
BITBANK6           100      0       0      17        0.0%
BANK6              100      0       0      18        0.0%
BITBANK5           100      0       0      15        0.0%
BANK5              100      0       0      16        0.0%
BITBANK4           100      0       0      13        0.0%
BANK4              100      0       0      14        0.0%
BITBANK3           100      0       0      11        0.0%
BANK3              100      0       0      12        0.0%
BITBANK2           100      0       0       9        0.0%
BANK2              100      0       0      10        0.0%
BITBANK1           100      0       0       7        0.0%
BANK1              100      0       0       8        0.0%
BITBANK0            A0      0       0       4        0.0%
BANK0               A0      0      20       5       20.0%
BITCOMRAM           5F      0       0       0        0.0%
COMRAM              5F     44      5B       1       95.8%
BITSFR_1             0      0       0     200        0.0%
SFR_1                0      0       0     200        0.0%
BITSFR               0      0       0     200        0.0%
SFR                  0      0       0     200        0.0%
STACK                0      0       0       2        0.0%
NULL                 0      0       0       0        0.0%
ABS                  0      0      7B       6        0.0%
DATA                 0      0     2A9       3        0.0%
CODE                 0      0       0       0        0.0%


Microchip Technology PIC18 Macro Assembler V2.05 build -831301201 
Symbol Table                                                                                   Tue May 28 22:10:30 2019

           ___fldiv@aexp 0040             ___fldiv@bexp 003F             ___fldiv@sign 0038  
           __CFG_CP0$OFF 000000             __CFG_CP1$OFF 000000             __CFG_CP2$OFF 000000  
           __CFG_CP3$OFF 000000              __CFG_LVP$ON 000000                      _GIE 007F97  
           __CFG_CPB$OFF 000000             __CFG_CPD$OFF 000000                      _Fil 0060  
                    wreg 000FE8             ___flmul@aexp 0020             ___flmul@bexp 0021  
           ___flmul@sign 001B             ___flmul@temp 0026             ___flmul@prod 0022  
             Error@F5051 0043                     l1515 089C                     l1532 0B3A  
                   l1524 0AB4                     l1525 0AB0                     l1563 0EB2  
                   l1556 0E34                     l1485 0CE0                     l1496 0D4E  
                   l1497 0D4A                     l6502 0B9A                     l6522 0BDA  
                   l6506 0B9E                     l6620 0DEE                     l6612 0DE0  
                   l6604 0D92                     l6540 0C28                     l6534 0C12  
                   l6526 0BDE                     l6710 0A5C                     _ADIE 007CEE  
                   l6608 0DB6                     l6640 0848                     l6800 0F24  
                   l6464 1086                     _ADIF 007CF6                     l6618 0DEC  
                   l6642 084C                     l6572 0CDE                     l6548 0C40  
                   l6740 0B16                     l6716 0A7A                     l6660 088C  
                   l6644 085C                     l6566 0CB8                     l6558 0C90  
                   l6584 0D14                     l6752 0B58                     l6736 0AF8  
                   l6578 0CF6                     l6658 0888                     l6770 0E62  
                   l6668 08BA                     l6772 0E68                     l6764 0E44  
                   l6782 0ED8                     l6774 0E74                     l6942 0F7E  
                   l6784 0EE4                     l6776 0E9A                     STR_1 0801  
                   STR_5 0810                     _LATA 000F89                     _LATB 000F8A  
                   _LATC 000F8B                     _LATD 000F8C                     _LATE 000F8D  
                   _PEIE 007F96                     u9140 0D44                     u9330 0AAA  
                   u9180 0DA0                     u9190 0DC4                     u9280 08A8  
                   u9370 0B06                     u9290 0A1E                     u9380 0B24  
                   u9460 0EEE                     u9295 0A14                     _WPUB 000F85  
                   _Fsid 0054                     _Stat 004D                     _data 0058  
                   _main 0F36                     fsr1h 000FE2                     fsr1l 000FE1  
                   _volt 004E            __CFG_BORV$190 000000                     prodh 000FF4  
                   prodl 000FF3                     start 0000            __CFG_IESO$OFF 000000  
        ___fldiv@new_exp 0039            __CFG_MCLRE$ON 000000             ___param_bank 000000  
                  ?_main 0001          __end_of___fldiv 0DF6          __end_of___flmul 0B6E  
         __CFG_DEBUG$OFF 000000                    _PORTA 000F80                    _TRISA 000F92  
                  _TRISB 000F93                    _TRISC 000F94                    _TRISD 000F95  
                  _TRISE 000F96                    _FatFs 0080            __CFG_WRT0$OFF 000000  
          __CFG_WRT1$OFF 000000            __CFG_WRT2$OFF 000000            __CFG_WRT3$OFF 000000  
         __CFG_EBTR0$OFF 000000           __CFG_FCMEN$OFF 000000           __CFG_EBTR1$OFF 000000  
         __CFG_EBTR2$OFF 000000           __CFG_EBTR3$OFF 000000            __CFG_WRTB$OFF 000000  
          __CFG_WRTC$OFF 000000            __CFG_WRTD$OFF 000000                    _adcin 0052  
         __CFG_EBTRB$OFF 000000                    tablat 000FF5                    status 000FD8  
         __CFG_T3CMX$RC0 000000           __CFG_ICPRT$OFF 000000          __initialization 1018  
           __end_of_main 1018           __CFG_PCLKEN$ON 000000                   ??_main 0041  
          __activetblptr 000002           __CFG_SDOMX$RB3 000000          __CFG_CCP2MX$RC1 000000  
                 _ADCON0 000FC2                   _ADCON1 000FC1                   _ADCON2 000FC0  
     __size_of_Init8LEDs 0010                   _ACTCON 000FB5                   _ADRESH 000FC4  
                 _ADRESL 000FC3                   _ANSELA 000F5B                   _ANSELB 000F5C  
                 _ANSELC 000F5D                   _ANSELD 000F5E                   _ANSELE 000F5F  
         __CFG_WDTEN$OFF 000000                   _OSCCON 000FD3         __end_of___xxtofl 0F36  
         __CFG_XINST$OFF 000000                ??___fldiv 0030           __CFG_STVREN$ON 000000  
              ??___flmul 0017                   clear_0 1040                   clear_1 1052  
           __pdataCOMRAM 0043             __mediumconst 0000                   tblptrh 000FF7  
                 tblptrl 000FF6                   tblptru 000FF8     __CFG_LS48MHZ$SYS24X4 000000  
           ___xxtofl@arg 000B             ___xxtofl@exp 000A             ___xxtofl@val 0001  
             __accesstop 0060  __end_of__initialization 1064          __CFG_PBADEN$OFF 000000  
          ___rparam_used 000001           __pcstackCOMRAM 0001         __CFG_nPWRTEN$OFF 000000  
          ?_interruptadc 0001        __end_of_Init8LEDs 10A4               __pbssBANK0 0060  
             __pnvCOMRAM 004E        __CFG_PLLSEL$PLL4X 000000           ??_interruptadc 0003  
              ?___xxtofl 0001                  _OSCCON2 000FD2                  _OSCTUNE 000F9B  
                _SSP1ADD 000FC8                  _SSP1BUF 000FC9                  __Hparam 0000  
                __Lparam 0000                  ff@FatFs 0056                  ___fldiv 0B6E  
                ___flmul 081C             __psmallconst 0800                  __pcinit 1018  
                __ramtop 0800                  __ptext0 0F36                  __ptext1 106E  
                __ptext2 0DF6                  __ptext3 081C                  __ptext4 0B6E  
                __ptext5 1094               ??___xxtofl 0005     end_of_initialization 1064  
          __Lmediumconst 0000                  postdec1 000FE5                  postinc0 000FEE  
          ___xxtofl@sign 0009              ___fldiv@grs 003B              ___fldiv@rem 0034  
   __end_of_interruptadc 1094              ___flmul@grs 001C            __pidataCOMRAM 10A4  
              _Init8LEDs 1094      start_initialization 1018          __CFG_nLPBOR$OFF 000000  
             ?_Init8LEDs 0001                ___fldiv@a 002C                ___fldiv@b 0028  
            __pbssBIGRAM 0080                ___flmul@a 0013                ___flmul@b 000F  
            __pbssCOMRAM 0054        __size_of___xxtofl 0140                 ?___fldiv 0028  
               ?___flmul 000F        interruptadc@adcin 0001    __size_of_interruptadc 0026  
            __smallconst 0800                 _LATBbits 000F8A         __CFG_WDTPS$32768 000000  
               _SSP1CON1 000FC6             _interruptadc 106E                 _SSP1STAT 000FC7  
             _ADCON0bits 000FC2              ??_Init8LEDs 0001                 _CardType 0059  
      __CFG_CFGPLLEN$OFF 000000              _INTCON2bits 000FF1                copy_data0 102C  
               __Hrparam 0000                 __Lrparam 0000       __CFG_BOREN$SBORDIS 000000  
       __size_of___fldiv 0288         __size_of___flmul 0352                 ___xxtofl 0DF6  
           _SSP1CON1bits 000FC6            __size_of_main 00E2             _SSP1STATbits 000FC7  
   __CFG_CPUDIV$NOCLKDIV 000000       __CFG_FOSC$INTOSCIO 000000  
